<?xml version="1.0" encoding="utf-8"?>
<?xml-stylesheet type="text/xsl" href="pdml2html.xsl"?>
<!-- You can find pdml2html.xsl in /usr/share/wireshark or at https://code.wireshark.org/review/gitweb?p=wireshark.git;a=blob_plain;f=pdml2html.xsl. -->
<pdml version="0" creator="wireshark/2.6.6" time="Sat Mar  2 19:06:01 2019" capture_file="/home/gcla/.cache/termshark/wlan1-278234356.pcap">
<packet>
  <proto name="geninfo" pos="0" showname="General information" size="129">
    <field name="num" pos="0" show="1" showname="Number" value="1" size="129"/>
    <field name="len" pos="0" show="129" showname="Frame Length" value="81" size="129"/>
    <field name="caplen" pos="0" show="129" showname="Captured Length" value="81" size="129"/>
    <field name="timestamp" pos="0" show="Feb 22, 2019 22:23:01.572183000 EST" showname="Captured Time" value="1550892181.572183000" size="129"/>
  </proto>
  <proto name="frame" showname="Frame 1: 129 bytes on wire (1032 bits), 129 bytes captured (1032 bits)" size="129" pos="0">
    <field name="frame.encap_type" showname="Encapsulation type: Ethernet (1)" size="0" pos="0" show="1"/>
    <field name="frame.time" showname="Arrival Time: Feb 22, 2019 22:23:01.572183000 EST" size="0" pos="0" show="Feb 22, 2019 22:23:01.572183000 EST"/>
    <field name="frame.offset_shift" showname="Time shift for this packet: 0.000000000 seconds" size="0" pos="0" show="0.000000000"/>
    <field name="frame.time_epoch" showname="Epoch Time: 1550892181.572183000 seconds" size="0" pos="0" show="1550892181.572183000"/>
    <field name="frame.time_delta" showname="Time delta from previous captured frame: 0.000000000 seconds" size="0" pos="0" show="0.000000000"/>
    <field name="frame.time_delta_displayed" showname="Time delta from previous displayed frame: 0.000000000 seconds" size="0" pos="0" show="0.000000000"/>
    <field name="frame.time_relative" showname="Time since reference or first frame: 0.000000000 seconds" size="0" pos="0" show="0.000000000"/>
    <field name="frame.number" showname="Frame Number: 1" size="0" pos="0" show="1"/>
    <field name="frame.len" showname="Frame Length: 129 bytes (1032 bits)" size="0" pos="0" show="129"/>
    <field name="frame.cap_len" showname="Capture Length: 129 bytes (1032 bits)" size="0" pos="0" show="129"/>
    <field name="frame.marked" showname="Frame is marked: False" size="0" pos="0" show="0"/>
    <field name="frame.ignored" showname="Frame is ignored: False" size="0" pos="0" show="0"/>
    <field name="frame.protocols" showname="Protocols in frame: eth:ethertype:ip:tcp:ssl" size="0" pos="0" show="eth:ethertype:ip:tcp:ssl"/>
  </proto>
  <proto name="eth" showname="Ethernet II, Src: Tp-LinkT_19:de:6c (e8:de:27:19:de:6c), Dst: Google_d2:76:12 (30:fd:38:d2:76:12)" size="14" pos="0">
    <field name="eth.dst" showname="Destination: Google_d2:76:12 (30:fd:38:d2:76:12)" size="6" pos="0" show="30:fd:38:d2:76:12" value="30fd38d27612">
      <field name="eth.dst_resolved" showname="Destination (resolved): Google_d2:76:12" hide="yes" size="6" pos="0" show="Google_d2:76:12" value="30fd38d27612"/>
      <field name="eth.addr" showname="Address: Google_d2:76:12 (30:fd:38:d2:76:12)" size="6" pos="0" show="30:fd:38:d2:76:12" value="30fd38d27612"/>
      <field name="eth.addr_resolved" showname="Address (resolved): Google_d2:76:12" hide="yes" size="6" pos="0" show="Google_d2:76:12" value="30fd38d27612"/>
      <field name="eth.lg" showname=".... ..0. .... .... .... .... = LG bit: Globally unique address (factory default)" size="3" pos="0" show="0" value="0" unmaskedvalue="30fd38"/>
      <field name="eth.ig" showname=".... ...0 .... .... .... .... = IG bit: Individual address (unicast)" size="3" pos="0" show="0" value="0" unmaskedvalue="30fd38"/>
    </field>
    <field name="eth.src" showname="Source: Tp-LinkT_19:de:6c (e8:de:27:19:de:6c)" size="6" pos="6" show="e8:de:27:19:de:6c" value="e8de2719de6c">
      <field name="eth.src_resolved" showname="Source (resolved): Tp-LinkT_19:de:6c" hide="yes" size="6" pos="6" show="Tp-LinkT_19:de:6c" value="e8de2719de6c"/>
      <field name="eth.addr" showname="Address: Tp-LinkT_19:de:6c (e8:de:27:19:de:6c)" size="6" pos="6" show="e8:de:27:19:de:6c" value="e8de2719de6c"/>
      <field name="eth.addr_resolved" showname="Address (resolved): Tp-LinkT_19:de:6c" hide="yes" size="6" pos="6" show="Tp-LinkT_19:de:6c" value="e8de2719de6c"/>
      <field name="eth.lg" showname=".... ..0. .... .... .... .... = LG bit: Globally unique address (factory default)" size="3" pos="6" show="0" value="0" unmaskedvalue="e8de27"/>
      <field name="eth.ig" showname=".... ...0 .... .... .... .... = IG bit: Individual address (unicast)" size="3" pos="6" show="0" value="0" unmaskedvalue="e8de27"/>
    </field>
    <field name="eth.type" showname="Type: IPv4 (0x0800)" size="2" pos="12" show="0x00000800" value="0800"/>
  </proto>
  <proto name="ip" showname="Internet Protocol Version 4, Src: 192.168.86.246, Dst: 52.20.230.126" size="20" pos="14">
    <field name="ip.version" showname="0100 .... = Version: 4" size="1" pos="14" show="4" value="4" unmaskedvalue="45"/>
    <field name="ip.hdr_len" showname=".... 0101 = Header Length: 20 bytes (5)" size="1" pos="14" show="20" value="45"/>
    <field name="ip.dsfield" showname="Differentiated Services Field: 0x00 (DSCP: CS0, ECN: Not-ECT)" size="1" pos="15" show="0x00000000" value="00">
      <field name="ip.dsfield.dscp" showname="0000 00.. = Differentiated Services Codepoint: Default (0)" size="1" pos="15" show="0" value="0" unmaskedvalue="00"/>
      <field name="ip.dsfield.ecn" showname=".... ..00 = Explicit Congestion Notification: Not ECN-Capable Transport (0)" size="1" pos="15" show="0" value="0" unmaskedvalue="00"/>
    </field>
    <field name="ip.len" showname="Total Length: 115" size="2" pos="16" show="115" value="0073"/>
    <field name="ip.id" showname="Identification: 0x7def (32239)" size="2" pos="18" show="0x00007def" value="7def"/>
    <field name="ip.flags" showname="Flags: 0x4000, Don&#x27;t fragment" size="2" pos="20" show="0x00004000" value="4000">
      <field name="ip.flags.rb" showname="0... .... .... .... = Reserved bit: Not set" size="2" pos="20" show="0" value="0" unmaskedvalue="4000"/>
      <field name="ip.flags.df" showname=".1.. .... .... .... = Don&#x27;t fragment: Set" size="2" pos="20" show="1" value="1" unmaskedvalue="4000"/>
      <field name="ip.flags.mf" showname="..0. .... .... .... = More fragments: Not set" size="2" pos="20" show="0" value="0" unmaskedvalue="4000"/>
      <field name="ip.frag_offset" showname="...0 0000 0000 0000 = Fragment offset: 0" size="2" pos="20" show="0" value="0" unmaskedvalue="4000"/>
    </field>
    <field name="ip.ttl" showname="Time to live: 64" size="1" pos="22" show="64" value="40"/>
    <field name="ip.proto" showname="Protocol: TCP (6)" size="1" pos="23" show="6" value="06"/>
    <field name="ip.checksum" showname="Header checksum: 0x8a64 [correct]" size="2" pos="24" show="0x00008a64" value="8a64"/>
    <field name="ip.checksum.status" showname="Header checksum status: Good" size="0" pos="24" show="1"/>
    <field name="ip.checksum_calculated" showname="Calculated Checksum: 0x8a64" size="2" pos="24" show="0x00008a64" value="8a64"/>
    <field name="ip.src" showname="Source: 192.168.86.246" size="4" pos="26" show="192.168.86.246" value="c0a856f6"/>
    <field name="ip.addr" showname="Source or Destination Address: 192.168.86.246" hide="yes" size="4" pos="26" show="192.168.86.246" value="c0a856f6"/>
    <field name="ip.src_host" showname="Source Host: 192.168.86.246" hide="yes" size="4" pos="26" show="192.168.86.246" value="c0a856f6"/>
    <field name="ip.host" showname="Source or Destination Host: 192.168.86.246" hide="yes" size="4" pos="26" show="192.168.86.246" value="c0a856f6"/>
    <field name="ip.dst" showname="Destination: 52.20.230.126" size="4" pos="30" show="52.20.230.126" value="3414e67e"/>
    <field name="ip.addr" showname="Source or Destination Address: 52.20.230.126" hide="yes" size="4" pos="30" show="52.20.230.126" value="3414e67e"/>
    <field name="ip.dst_host" showname="Destination Host: 52.20.230.126" hide="yes" size="4" pos="30" show="52.20.230.126" value="3414e67e"/>
    <field name="ip.host" showname="Source or Destination Host: 52.20.230.126" hide="yes" size="4" pos="30" show="52.20.230.126" value="3414e67e"/>
  </proto>
  <proto name="tcp" showname="Transmission Control Protocol, Src Port: 42184, Dst Port: 443, Seq: 1, Ack: 1, Len: 63" size="32" pos="34">
    <field name="tcp.srcport" showname="Source Port: 42184" size="2" pos="34" show="42184" value="a4c8"/>
    <field name="tcp.dstport" showname="Destination Port: 443" size="2" pos="36" show="443" value="01bb"/>
    <field name="tcp.port" showname="Source or Destination Port: 42184" hide="yes" size="2" pos="34" show="42184" value="a4c8"/>
    <field name="tcp.port" showname="Source or Destination Port: 443" hide="yes" size="2" pos="36" show="443" value="01bb"/>
    <field name="tcp.stream" showname="Stream index: 0" size="0" pos="34" show="0"/>
    <field name="tcp.len" showname="TCP Segment Len: 63" size="1" pos="46" show="63" value="80"/>
    <field name="tcp.seq" showname="Sequence number: 1    (relative sequence number)" size="4" pos="38" show="1" value="3ead8288"/>
    <field name="tcp.nxtseq" showname="Next sequence number: 64    (relative sequence number)" size="0" pos="34" show="64"/>
    <field name="tcp.ack" showname="Acknowledgment number: 1    (relative ack number)" size="4" pos="42" show="1" value="17e68f97"/>
    <field name="tcp.hdr_len" showname="1000 .... = Header Length: 32 bytes (8)" size="1" pos="46" show="32" value="80"/>
    <field name="tcp.flags" showname="Flags: 0x018 (PSH, ACK)" size="2" pos="46" show="0x00000018" value="18" unmaskedvalue="8018">
      <field name="tcp.flags.res" showname="000. .... .... = Reserved: Not set" size="1" pos="46" show="0" value="0" unmaskedvalue="80"/>
      <field name="tcp.flags.ns" showname="...0 .... .... = Nonce: Not set" size="1" pos="46" show="0" value="0" unmaskedvalue="80"/>
      <field name="tcp.flags.cwr" showname=".... 0... .... = Congestion Window Reduced (CWR): Not set" size="1" pos="47" show="0" value="0" unmaskedvalue="18"/>
      <field name="tcp.flags.ecn" showname=".... .0.. .... = ECN-Echo: Not set" size="1" pos="47" show="0" value="0" unmaskedvalue="18"/>
      <field name="tcp.flags.urg" showname=".... ..0. .... = Urgent: Not set" size="1" pos="47" show="0" value="0" unmaskedvalue="18"/>
      <field name="tcp.flags.ack" showname=".... ...1 .... = Acknowledgment: Set" size="1" pos="47" show="1" value="1" unmaskedvalue="18"/>
      <field name="tcp.flags.push" showname=".... .... 1... = Push: Set" size="1" pos="47" show="1" value="1" unmaskedvalue="18"/>
      <field name="tcp.flags.reset" showname=".... .... .0.. = Reset: Not set" size="1" pos="47" show="0" value="0" unmaskedvalue="18"/>
      <field name="tcp.flags.syn" showname=".... .... ..0. = Syn: Not set" size="1" pos="47" show="0" value="0" unmaskedvalue="18"/>
      <field name="tcp.flags.fin" showname=".... .... ...0 = Fin: Not set" size="1" pos="47" show="0" value="0" unmaskedvalue="18"/>
      <field name="tcp.flags.str" showname="TCP Flags: \xc2\xb7\xc2\xb7\xc2\xb7\xc2\xb7\xc2\xb7\xc2\xb7\xc2\xb7AP\xc2\xb7\xc2\xb7\xc2\xb7" size="2" pos="46" show="\xc2\xb7\xc2\xb7\xc2\xb7\xc2\xb7\xc2\xb7\xc2\xb7\xc2\xb7AP\xc2\xb7\xc2\xb7\xc2\xb7" value="8018"/>
    </field>
    <field name="tcp.window_size_value" showname="Window size value: 319" size="2" pos="48" show="319" value="013f"/>
    <field name="tcp.window_size" showname="Calculated window size: 319" size="2" pos="48" show="319" value="013f"/>
    <field name="tcp.window_size_scalefactor" showname="Window size scaling factor: -1 (unknown)" size="2" pos="48" show="-1" value="013f"/>
    <field name="tcp.checksum" showname="Checksum: 0x7d3b [unverified]" size="2" pos="50" show="0x00007d3b" value="7d3b"/>
    <field name="tcp.checksum.status" showname="Checksum Status: Unverified" size="0" pos="50" show="2"/>
    <field name="tcp.urgent_pointer" showname="Urgent pointer: 0" size="2" pos="52" show="0" value="0000"/>
    <field name="tcp.options" showname="Options: (12 bytes), No-Operation (NOP), No-Operation (NOP), Timestamps" size="12" pos="54" show="01:01:08:0a:0c:5d:30:7f:3f:24:4a:9b" value="0101080a0c5d307f3f244a9b">
      <field name="tcp.options.nop" showname="TCP Option - No-Operation (NOP)" size="1" pos="54" show="01" value="01">
        <field name="tcp.option_kind" showname="Kind: No-Operation (1)" size="1" pos="54" show="1" value="01"/>
      </field>
      <field name="tcp.options.nop" showname="TCP Option - No-Operation (NOP)" size="1" pos="55" show="01" value="01">
        <field name="tcp.option_kind" showname="Kind: No-Operation (1)" size="1" pos="55" show="1" value="01"/>
      </field>
      <field name="tcp.options.timestamp" showname="TCP Option - Timestamps: TSval 207433855, TSecr 1059343003" size="10" pos="56" show="08:0a:0c:5d:30:7f:3f:24:4a:9b" value="080a0c5d307f3f244a9b">
        <field name="tcp.option_kind" showname="Kind: Time Stamp Option (8)" size="1" pos="56" show="8" value="08"/>
        <field name="tcp.option_len" showname="Length: 10" size="1" pos="57" show="10" value="0a"/>
        <field name="tcp.options.timestamp.tsval" showname="Timestamp value: 207433855" size="4" pos="58" show="207433855" value="0c5d307f"/>
        <field name="tcp.options.timestamp.tsecr" showname="Timestamp echo reply: 1059343003" size="4" pos="62" show="1059343003" value="3f244a9b"/>
      </field>
    </field>
    <field name="tcp.analysis" showname="SEQ/ACK analysis" size="0" pos="34" show="" value="">
      <field name="tcp.analysis.bytes_in_flight" showname="Bytes in flight: 63" size="0" pos="34" show="63"/>
      <field name="tcp.analysis.push_bytes_sent" showname="Bytes sent since last PSH flag: 63" size="0" pos="34" show="63"/>
    </field>
    <field name="" show="Timestamps" size="0" pos="34">
      <field name="tcp.time_relative" showname="Time since first frame in this TCP stream: 0.000000000 seconds" size="0" pos="34" show="0.000000000"/>
      <field name="tcp.time_delta" showname="Time since previous frame in this TCP stream: 0.000000000 seconds" size="0" pos="34" show="0.000000000"/>
    </field>
    <field name="tcp.payload" showname="TCP payload (63 bytes)" size="63" pos="66" show="17:03:03:00:3a:00:00:00:00:00:00:01:8c:43:07:f0:2f:f9:b2:7b:87:1a:a3:39:94:c2:2e:a0:3b:79:76:87:b5:67:c1:c0:aa:d4:42:59:18:e6:9f:f7:92:ca:ad:7d:e9:30:eb:e4:fe:6d:fe:1a:f6:b9:4c:59:af:64:64" value="170303003a000000000000018c4307f02ff9b27b871aa33994c22ea03b797687b567c1c0aad4425918e69ff792caad7de930ebe4fe6dfe1af6b94c59af6464"/>
  </proto>
  <proto name="ssl" showname="Secure Sockets Layer" size="63" pos="66">
    <field name="ssl.record" showname="TLSv1.2 Record Layer: Application Data Protocol: http-over-tls" size="63" pos="66" show="" value="">
      <field name="ssl.record.content_type" showname="Content Type: Application Data (23)" size="1" pos="66" show="23" value="17"/>
      <field name="ssl.record.version" showname="Version: TLS 1.2 (0x0303)" size="2" pos="67" show="0x00000303" value="0303"/>
      <field name="ssl.record.length" showname="Length: 58" size="2" pos="69" show="58" value="003a"/>
      <field name="ssl.app_data" showname="Encrypted Application Data: 000000000000018c4307f02ff9b27b871aa33994c22ea03b..." size="58" pos="71" show="00:00:00:00:00:00:01:8c:43:07:f0:2f:f9:b2:7b:87:1a:a3:39:94:c2:2e:a0:3b:79:76:87:b5:67:c1:c0:aa:d4:42:59:18:e6:9f:f7:92:ca:ad:7d:e9:30:eb:e4:fe:6d:fe:1a:f6:b9:4c:59:af:64:64" value="000000000000018c4307f02ff9b27b871aa33994c22ea03b797687b567c1c0aad4425918e69ff792caad7de930ebe4fe6dfe1af6b94c59af6464"/>
    </field>
  </proto>
</packet>


<packet>
  <proto name="geninfo" pos="0" showname="General information" size="103">
    <field name="num" pos="0" show="2" showname="Number" value="2" size="103"/>
    <field name="len" pos="0" show="103" showname="Frame Length" value="67" size="103"/>
    <field name="caplen" pos="0" show="103" showname="Captured Length" value="67" size="103"/>
    <field name="timestamp" pos="0" show="Feb 22, 2019 22:23:01.587070000 EST" showname="Captured Time" value="1550892181.587070000" size="103"/>
  </proto>
  <proto name="frame" showname="Frame 2: 103 bytes on wire (824 bits), 103 bytes captured (824 bits)" size="103" pos="0">
    <field name="frame.encap_type" showname="Encapsulation type: Ethernet (1)" size="0" pos="0" show="1"/>
    <field name="frame.time" showname="Arrival Time: Feb 22, 2019 22:23:01.587070000 EST" size="0" pos="0" show="Feb 22, 2019 22:23:01.587070000 EST"/>
    <field name="frame.offset_shift" showname="Time shift for this packet: 0.000000000 seconds" size="0" pos="0" show="0.000000000"/>
    <field name="frame.time_epoch" showname="Epoch Time: 1550892181.587070000 seconds" size="0" pos="0" show="1550892181.587070000"/>
    <field name="frame.time_delta" showname="Time delta from previous captured frame: 0.014887000 seconds" size="0" pos="0" show="0.014887000"/>
    <field name="frame.time_delta_displayed" showname="Time delta from previous displayed frame: 0.014887000 seconds" size="0" pos="0" show="0.014887000"/>
    <field name="frame.time_relative" showname="Time since reference or first frame: 0.014887000 seconds" size="0" pos="0" show="0.014887000"/>
    <field name="frame.number" showname="Frame Number: 2" size="0" pos="0" show="2"/>
    <field name="frame.len" showname="Frame Length: 103 bytes (824 bits)" size="0" pos="0" show="103"/>
    <field name="frame.cap_len" showname="Capture Length: 103 bytes (824 bits)" size="0" pos="0" show="103"/>
    <field name="frame.marked" showname="Frame is marked: False" size="0" pos="0" show="0"/>
    <field name="frame.ignored" showname="Frame is ignored: False" size="0" pos="0" show="0"/>
    <field name="frame.protocols" showname="Protocols in frame: eth:ethertype:ip:tcp:ssl" size="0" pos="0" show="eth:ethertype:ip:tcp:ssl"/>
  </proto>
  <proto name="eth" showname="Ethernet II, Src: Google_d2:76:12 (30:fd:38:d2:76:12), Dst: Tp-LinkT_19:de:6c (e8:de:27:19:de:6c)" size="14" pos="0">
    <field name="eth.dst" showname="Destination: Tp-LinkT_19:de:6c (e8:de:27:19:de:6c)" size="6" pos="0" show="e8:de:27:19:de:6c" value="e8de2719de6c">
      <field name="eth.dst_resolved" showname="Destination (resolved): Tp-LinkT_19:de:6c" hide="yes" size="6" pos="0" show="Tp-LinkT_19:de:6c" value="e8de2719de6c"/>
      <field name="eth.addr" showname="Address: Tp-LinkT_19:de:6c (e8:de:27:19:de:6c)" size="6" pos="0" show="e8:de:27:19:de:6c" value="e8de2719de6c"/>
      <field name="eth.addr_resolved" showname="Address (resolved): Tp-LinkT_19:de:6c" hide="yes" size="6" pos="0" show="Tp-LinkT_19:de:6c" value="e8de2719de6c"/>
      <field name="eth.lg" showname=".... ..0. .... .... .... .... = LG bit: Globally unique address (factory default)" size="3" pos="0" show="0" value="0" unmaskedvalue="e8de27"/>
      <field name="eth.ig" showname=".... ...0 .... .... .... .... = IG bit: Individual address (unicast)" size="3" pos="0" show="0" value="0" unmaskedvalue="e8de27"/>
    </field>
    <field name="eth.src" showname="Source: Google_d2:76:12 (30:fd:38:d2:76:12)" size="6" pos="6" show="30:fd:38:d2:76:12" value="30fd38d27612">
      <field name="eth.src_resolved" showname="Source (resolved): Google_d2:76:12" hide="yes" size="6" pos="6" show="Google_d2:76:12" value="30fd38d27612"/>
      <field name="eth.addr" showname="Address: Google_d2:76:12 (30:fd:38:d2:76:12)" size="6" pos="6" show="30:fd:38:d2:76:12" value="30fd38d27612"/>
      <field name="eth.addr_resolved" showname="Address (resolved): Google_d2:76:12" hide="yes" size="6" pos="6" show="Google_d2:76:12" value="30fd38d27612"/>
      <field name="eth.lg" showname=".... ..0. .... .... .... .... = LG bit: Globally unique address (factory default)" size="3" pos="6" show="0" value="0" unmaskedvalue="30fd38"/>
      <field name="eth.ig" showname=".... ...0 .... .... .... .... = IG bit: Individual address (unicast)" size="3" pos="6" show="0" value="0" unmaskedvalue="30fd38"/>
    </field>
    <field name="eth.type" showname="Type: IPv4 (0x0800)" size="2" pos="12" show="0x00000800" value="0800"/>
  </proto>
  <proto name="ip" showname="Internet Protocol Version 4, Src: 52.20.230.126, Dst: 192.168.86.246" size="20" pos="14">
    <field name="ip.version" showname="0100 .... = Version: 4" size="1" pos="14" show="4" value="4" unmaskedvalue="45"/>
    <field name="ip.hdr_len" showname=".... 0101 = Header Length: 20 bytes (5)" size="1" pos="14" show="20" value="45"/>
    <field name="ip.dsfield" showname="Differentiated Services Field: 0x00 (DSCP: CS0, ECN: Not-ECT)" size="1" pos="15" show="0x00000000" value="00">
      <field name="ip.dsfield.dscp" showname="0000 00.. = Differentiated Services Codepoint: Default (0)" size="1" pos="15" show="0" value="0" unmaskedvalue="00"/>
      <field name="ip.dsfield.ecn" showname=".... ..00 = Explicit Congestion Notification: Not ECN-Capable Transport (0)" size="1" pos="15" show="0" value="0" unmaskedvalue="00"/>
    </field>
    <field name="ip.len" showname="Total Length: 89" size="2" pos="16" show="89" value="0059"/>
    <field name="ip.id" showname="Identification: 0x23f9 (9209)" size="2" pos="18" show="0x000023f9" value="23f9"/>
    <field name="ip.flags" showname="Flags: 0x4000, Don&#x27;t fragment" size="2" pos="20" show="0x00004000" value="4000">
      <field name="ip.flags.rb" showname="0... .... .... .... = Reserved bit: Not set" size="2" pos="20" show="0" value="0" unmaskedvalue="4000"/>
      <field name="ip.flags.df" showname=".1.. .... .... .... = Don&#x27;t fragment: Set" size="2" pos="20" show="1" value="1" unmaskedvalue="4000"/>
      <field name="ip.flags.mf" showname="..0. .... .... .... = More fragments: Not set" size="2" pos="20" show="0" value="0" unmaskedvalue="4000"/>
      <field name="ip.frag_offset" showname="...0 0000 0000 0000 = Fragment offset: 0" size="2" pos="20" show="0" value="0" unmaskedvalue="4000"/>
    </field>
    <field name="ip.ttl" showname="Time to live: 239" size="1" pos="22" show="239" value="ef"/>
    <field name="ip.proto" showname="Protocol: TCP (6)" size="1" pos="23" show="6" value="06"/>
    <field name="ip.checksum" showname="Header checksum: 0x3574 [correct]" size="2" pos="24" show="0x00003574" value="3574"/>
    <field name="ip.checksum.status" showname="Header checksum status: Good" size="0" pos="24" show="1"/>
    <field name="ip.checksum_calculated" showname="Calculated Checksum: 0x3574" size="2" pos="24" show="0x00003574" value="3574"/>
    <field name="ip.src" showname="Source: 52.20.230.126" size="4" pos="26" show="52.20.230.126" value="3414e67e"/>
    <field name="ip.addr" showname="Source or Destination Address: 52.20.230.126" hide="yes" size="4" pos="26" show="52.20.230.126" value="3414e67e"/>
    <field name="ip.src_host" showname="Source Host: 52.20.230.126" hide="yes" size="4" pos="26" show="52.20.230.126" value="3414e67e"/>
    <field name="ip.host" showname="Source or Destination Host: 52.20.230.126" hide="yes" size="4" pos="26" show="52.20.230.126" value="3414e67e"/>
    <field name="ip.dst" showname="Destination: 192.168.86.246" size="4" pos="30" show="192.168.86.246" value="c0a856f6"/>
    <field name="ip.addr" showname="Source or Destination Address: 192.168.86.246" hide="yes" size="4" pos="30" show="192.168.86.246" value="c0a856f6"/>
    <field name="ip.dst_host" showname="Destination Host: 192.168.86.246" hide="yes" size="4" pos="30" show="192.168.86.246" value="c0a856f6"/>
    <field name="ip.host" showname="Source or Destination Host: 192.168.86.246" hide="yes" size="4" pos="30" show="192.168.86.246" value="c0a856f6"/>
  </proto>
  <proto name="tcp" showname="Transmission Control Protocol, Src Port: 443, Dst Port: 42184, Seq: 1, Ack: 64, Len: 37" size="32" pos="34">
    <field name="tcp.srcport" showname="Source Port: 443" size="2" pos="34" show="443" value="01bb"/>
    <field name="tcp.dstport" showname="Destination Port: 42184" size="2" pos="36" show="42184" value="a4c8"/>
    <field name="tcp.port" showname="Source or Destination Port: 443" hide="yes" size="2" pos="34" show="443" value="01bb"/>
    <field name="tcp.port" showname="Source or Destination Port: 42184" hide="yes" size="2" pos="36" show="42184" value="a4c8"/>
    <field name="tcp.stream" showname="Stream index: 0" size="0" pos="34" show="0"/>
    <field name="tcp.len" showname="TCP Segment Len: 37" size="1" pos="46" show="37" value="80"/>
    <field name="tcp.seq" showname="Sequence number: 1    (relative sequence number)" size="4" pos="38" show="1" value="17e68f97"/>
    <field name="tcp.nxtseq" showname="Next sequence number: 38    (relative sequence number)" size="0" pos="34" show="38"/>
    <field name="tcp.ack" showname="Acknowledgment number: 64    (relative ack number)" size="4" pos="42" show="64" value="3ead82c7"/>
    <field name="tcp.hdr_len" showname="1000 .... = Header Length: 32 bytes (8)" size="1" pos="46" show="32" value="80"/>
    <field name="tcp.flags" showname="Flags: 0x018 (PSH, ACK)" size="2" pos="46" show="0x00000018" value="18" unmaskedvalue="8018">
      <field name="tcp.flags.res" showname="000. .... .... = Reserved: Not set" size="1" pos="46" show="0" value="0" unmaskedvalue="80"/>
      <field name="tcp.flags.ns" showname="...0 .... .... = Nonce: Not set" size="1" pos="46" show="0" value="0" unmaskedvalue="80"/>
      <field name="tcp.flags.cwr" showname=".... 0... .... = Congestion Window Reduced (CWR): Not set" size="1" pos="47" show="0" value="0" unmaskedvalue="18"/>
      <field name="tcp.flags.ecn" showname=".... .0.. .... = ECN-Echo: Not set" size="1" pos="47" show="0" value="0" unmaskedvalue="18"/>
      <field name="tcp.flags.urg" showname=".... ..0. .... = Urgent: Not set" size="1" pos="47" show="0" value="0" unmaskedvalue="18"/>
      <field name="tcp.flags.ack" showname=".... ...1 .... = Acknowledgment: Set" size="1" pos="47" show="1" value="1" unmaskedvalue="18"/>
      <field name="tcp.flags.push" showname=".... .... 1... = Push: Set" size="1" pos="47" show="1" value="1" unmaskedvalue="18"/>
      <field name="tcp.flags.reset" showname=".... .... .0.. = Reset: Not set" size="1" pos="47" show="0" value="0" unmaskedvalue="18"/>
      <field name="tcp.flags.syn" showname=".... .... ..0. = Syn: Not set" size="1" pos="47" show="0" value="0" unmaskedvalue="18"/>
      <field name="tcp.flags.fin" showname=".... .... ...0 = Fin: Not set" size="1" pos="47" show="0" value="0" unmaskedvalue="18"/>
      <field name="tcp.flags.str" showname="TCP Flags: \xc2\xb7\xc2\xb7\xc2\xb7\xc2\xb7\xc2\xb7\xc2\xb7\xc2\xb7AP\xc2\xb7\xc2\xb7\xc2\xb7" size="2" pos="46" show="\xc2\xb7\xc2\xb7\xc2\xb7\xc2\xb7\xc2\xb7\xc2\xb7\xc2\xb7AP\xc2\xb7\xc2\xb7\xc2\xb7" value="8018"/>
    </field>
    <field name="tcp.window_size_value" showname="Window size value: 117" size="2" pos="48" show="117" value="0075"/>
    <field name="tcp.window_size" showname="Calculated window size: 117" size="2" pos="48" show="117" value="0075"/>
    <field name="tcp.window_size_scalefactor" showname="Window size scaling factor: -1 (unknown)" size="2" pos="48" show="-1" value="0075"/>
    <field name="tcp.checksum" showname="Checksum: 0x714a [unverified]" size="2" pos="50" show="0x0000714a" value="714a"/>
    <field name="tcp.checksum.status" showname="Checksum Status: Unverified" size="0" pos="50" show="2"/>
    <field name="tcp.urgent_pointer" showname="Urgent pointer: 0" size="2" pos="52" show="0" value="0000"/>
    <field name="tcp.options" showname="Options: (12 bytes), No-Operation (NOP), No-Operation (NOP), Timestamps" size="12" pos="54" show="01:01:08:0a:3f:24:54:60:0c:5d:30:7f" value="0101080a3f2454600c5d307f">
      <field name="tcp.options.nop" showname="TCP Option - No-Operation (NOP)" size="1" pos="54" show="01" value="01">
        <field name="tcp.option_kind" showname="Kind: No-Operation (1)" size="1" pos="54" show="1" value="01"/>
      </field>
      <field name="tcp.options.nop" showname="TCP Option - No-Operation (NOP)" size="1" pos="55" show="01" value="01">
        <field name="tcp.option_kind" showname="Kind: No-Operation (1)" size="1" pos="55" show="1" value="01"/>
      </field>
      <field name="tcp.options.timestamp" showname="TCP Option - Timestamps: TSval 1059345504, TSecr 207433855" size="10" pos="56" show="08:0a:3f:24:54:60:0c:5d:30:7f" value="080a3f2454600c5d307f">
        <field name="tcp.option_kind" showname="Kind: Time Stamp Option (8)" size="1" pos="56" show="8" value="08"/>
        <field name="tcp.option_len" showname="Length: 10" size="1" pos="57" show="10" value="0a"/>
        <field name="tcp.options.timestamp.tsval" showname="Timestamp value: 1059345504" size="4" pos="58" show="1059345504" value="3f245460"/>
        <field name="tcp.options.timestamp.tsecr" showname="Timestamp echo reply: 207433855" size="4" pos="62" show="207433855" value="0c5d307f"/>
      </field>
    </field>
    <field name="tcp.analysis" showname="SEQ/ACK analysis" size="0" pos="34" show="" value="">
      <field name="tcp.analysis.acks_frame" showname="This is an ACK to the segment in frame: 1" size="0" pos="34" show="1"/>
      <field name="tcp.analysis.ack_rtt" showname="The RTT to ACK the segment was: 0.014887000 seconds" size="0" pos="34" show="0.014887000"/>
      <field name="tcp.analysis.bytes_in_flight" showname="Bytes in flight: 37" size="0" pos="34" show="37"/>
      <field name="tcp.analysis.push_bytes_sent" showname="Bytes sent since last PSH flag: 37" size="0" pos="34" show="37"/>
    </field>
    <field name="" show="Timestamps" size="0" pos="34">
      <field name="tcp.time_relative" showname="Time since first frame in this TCP stream: 0.014887000 seconds" size="0" pos="34" show="0.014887000"/>
      <field name="tcp.time_delta" showname="Time since previous frame in this TCP stream: 0.014887000 seconds" size="0" pos="34" show="0.014887000"/>
    </field>
    <field name="tcp.payload" showname="TCP payload (37 bytes)" size="37" pos="66" show="17:03:03:00:20:00:00:00:00:00:00:01:8c:e3:85:15:a7:9d:ac:aa:2d:70:e8:86:63:ec:68:c4:5a:15:d8:39:73:e6:e1:a4:e8" value="1703030020000000000000018ce38515a79dacaa2d70e88663ec68c45a15d83973e6e1a4e8"/>
  </proto>
  <proto name="ssl" showname="Secure Sockets Layer" size="37" pos="66">
    <field name="ssl.record" showname="TLSv1.2 Record Layer: Application Data Protocol: http-over-tls" size="37" pos="66" show="" value="">
      <field name="ssl.record.content_type" showname="Content Type: Application Data (23)" size="1" pos="66" show="23" value="17"/>
      <field name="ssl.record.version" showname="Version: TLS 1.2 (0x0303)" size="2" pos="67" show="0x00000303" value="0303"/>
      <field name="ssl.record.length" showname="Length: 32" size="2" pos="69" show="32" value="0020"/>
      <field name="ssl.app_data" showname="Encrypted Application Data: 000000000000018ce38515a79dacaa2d70e88663ec68c45a..." size="32" pos="71" show="00:00:00:00:00:00:01:8c:e3:85:15:a7:9d:ac:aa:2d:70:e8:86:63:ec:68:c4:5a:15:d8:39:73:e6:e1:a4:e8" value="000000000000018ce38515a79dacaa2d70e88663ec68c45a15d83973e6e1a4e8"/>
    </field>
  </proto>
</packet>


<packet>
  <proto name="geninfo" pos="0" showname="General information" size="66">
    <field name="num" pos="0" show="3" showname="Number" value="3" size="66"/>
    <field name="len" pos="0" show="66" showname="Frame Length" value="42" size="66"/>
    <field name="caplen" pos="0" show="66" showname="Captured Length" value="42" size="66"/>
    <field name="timestamp" pos="0" show="Feb 22, 2019 22:23:01.587106000 EST" showname="Captured Time" value="1550892181.587106000" size="66"/>
  </proto>
  <proto name="frame" showname="Frame 3: 66 bytes on wire (528 bits), 66 bytes captured (528 bits)" size="66" pos="0">
    <field name="frame.encap_type" showname="Encapsulation type: Ethernet (1)" size="0" pos="0" show="1"/>
    <field name="frame.time" showname="Arrival Time: Feb 22, 2019 22:23:01.587106000 EST" size="0" pos="0" show="Feb 22, 2019 22:23:01.587106000 EST"/>
    <field name="frame.offset_shift" showname="Time shift for this packet: 0.000000000 seconds" size="0" pos="0" show="0.000000000"/>
    <field name="frame.time_epoch" showname="Epoch Time: 1550892181.587106000 seconds" size="0" pos="0" show="1550892181.587106000"/>
    <field name="frame.time_delta" showname="Time delta from previous captured frame: 0.000036000 seconds" size="0" pos="0" show="0.000036000"/>
    <field name="frame.time_delta_displayed" showname="Time delta from previous displayed frame: 0.000036000 seconds" size="0" pos="0" show="0.000036000"/>
    <field name="frame.time_relative" showname="Time since reference or first frame: 0.014923000 seconds" size="0" pos="0" show="0.014923000"/>
    <field name="frame.number" showname="Frame Number: 3" size="0" pos="0" show="3"/>
    <field name="frame.len" showname="Frame Length: 66 bytes (528 bits)" size="0" pos="0" show="66"/>
    <field name="frame.cap_len" showname="Capture Length: 66 bytes (528 bits)" size="0" pos="0" show="66"/>
    <field name="frame.marked" showname="Frame is marked: False" size="0" pos="0" show="0"/>
    <field name="frame.ignored" showname="Frame is ignored: False" size="0" pos="0" show="0"/>
    <field name="frame.protocols" showname="Protocols in frame: eth:ethertype:ip:tcp" size="0" pos="0" show="eth:ethertype:ip:tcp"/>
  </proto>
  <proto name="eth" showname="Ethernet II, Src: Tp-LinkT_19:de:6c (e8:de:27:19:de:6c), Dst: Google_d2:76:12 (30:fd:38:d2:76:12)" size="14" pos="0">
    <field name="eth.dst" showname="Destination: Google_d2:76:12 (30:fd:38:d2:76:12)" size="6" pos="0" show="30:fd:38:d2:76:12" value="30fd38d27612">
      <field name="eth.dst_resolved" showname="Destination (resolved): Google_d2:76:12" hide="yes" size="6" pos="0" show="Google_d2:76:12" value="30fd38d27612"/>
      <field name="eth.addr" showname="Address: Google_d2:76:12 (30:fd:38:d2:76:12)" size="6" pos="0" show="30:fd:38:d2:76:12" value="30fd38d27612"/>
      <field name="eth.addr_resolved" showname="Address (resolved): Google_d2:76:12" hide="yes" size="6" pos="0" show="Google_d2:76:12" value="30fd38d27612"/>
      <field name="eth.lg" showname=".... ..0. .... .... .... .... = LG bit: Globally unique address (factory default)" size="3" pos="0" show="0" value="0" unmaskedvalue="30fd38"/>
      <field name="eth.ig" showname=".... ...0 .... .... .... .... = IG bit: Individual address (unicast)" size="3" pos="0" show="0" value="0" unmaskedvalue="30fd38"/>
    </field>
    <field name="eth.src" showname="Source: Tp-LinkT_19:de:6c (e8:de:27:19:de:6c)" size="6" pos="6" show="e8:de:27:19:de:6c" value="e8de2719de6c">
      <field name="eth.src_resolved" showname="Source (resolved): Tp-LinkT_19:de:6c" hide="yes" size="6" pos="6" show="Tp-LinkT_19:de:6c" value="e8de2719de6c"/>
      <field name="eth.addr" showname="Address: Tp-LinkT_19:de:6c (e8:de:27:19:de:6c)" size="6" pos="6" show="e8:de:27:19:de:6c" value="e8de2719de6c"/>
      <field name="eth.addr_resolved" showname="Address (resolved): Tp-LinkT_19:de:6c" hide="yes" size="6" pos="6" show="Tp-LinkT_19:de:6c" value="e8de2719de6c"/>
      <field name="eth.lg" showname=".... ..0. .... .... .... .... = LG bit: Globally unique address (factory default)" size="3" pos="6" show="0" value="0" unmaskedvalue="e8de27"/>
      <field name="eth.ig" showname=".... ...0 .... .... .... .... = IG bit: Individual address (unicast)" size="3" pos="6" show="0" value="0" unmaskedvalue="e8de27"/>
    </field>
    <field name="eth.type" showname="Type: IPv4 (0x0800)" size="2" pos="12" show="0x00000800" value="0800"/>
  </proto>
  <proto name="ip" showname="Internet Protocol Version 4, Src: 192.168.86.246, Dst: 52.20.230.126" size="20" pos="14">
    <field name="ip.version" showname="0100 .... = Version: 4" size="1" pos="14" show="4" value="4" unmaskedvalue="45"/>
    <field name="ip.hdr_len" showname=".... 0101 = Header Length: 20 bytes (5)" size="1" pos="14" show="20" value="45"/>
    <field name="ip.dsfield" showname="Differentiated Services Field: 0x00 (DSCP: CS0, ECN: Not-ECT)" size="1" pos="15" show="0x00000000" value="00">
      <field name="ip.dsfield.dscp" showname="0000 00.. = Differentiated Services Codepoint: Default (0)" size="1" pos="15" show="0" value="0" unmaskedvalue="00"/>
      <field name="ip.dsfield.ecn" showname=".... ..00 = Explicit Congestion Notification: Not ECN-Capable Transport (0)" size="1" pos="15" show="0" value="0" unmaskedvalue="00"/>
    </field>
    <field name="ip.len" showname="Total Length: 52" size="2" pos="16" show="52" value="0034"/>
    <field name="ip.id" showname="Identification: 0x7df0 (32240)" size="2" pos="18" show="0x00007df0" value="7df0"/>
    <field name="ip.flags" showname="Flags: 0x4000, Don&#x27;t fragment" size="2" pos="20" show="0x00004000" value="4000">
      <field name="ip.flags.rb" showname="0... .... .... .... = Reserved bit: Not set" size="2" pos="20" show="0" value="0" unmaskedvalue="4000"/>
      <field name="ip.flags.df" showname=".1.. .... .... .... = Don&#x27;t fragment: Set" size="2" pos="20" show="1" value="1" unmaskedvalue="4000"/>
      <field name="ip.flags.mf" showname="..0. .... .... .... = More fragments: Not set" size="2" pos="20" show="0" value="0" unmaskedvalue="4000"/>
      <field name="ip.frag_offset" showname="...0 0000 0000 0000 = Fragment offset: 0" size="2" pos="20" show="0" value="0" unmaskedvalue="4000"/>
    </field>
    <field name="ip.ttl" showname="Time to live: 64" size="1" pos="22" show="64" value="40"/>
    <field name="ip.proto" showname="Protocol: TCP (6)" size="1" pos="23" show="6" value="06"/>
    <field name="ip.checksum" showname="Header checksum: 0x8aa2 [correct]" size="2" pos="24" show="0x00008aa2" value="8aa2"/>
    <field name="ip.checksum.status" showname="Header checksum status: Good" size="0" pos="24" show="1"/>
    <field name="ip.checksum_calculated" showname="Calculated Checksum: 0x8aa2" size="2" pos="24" show="0x00008aa2" value="8aa2"/>
    <field name="ip.src" showname="Source: 192.168.86.246" size="4" pos="26" show="192.168.86.246" value="c0a856f6"/>
    <field name="ip.addr" showname="Source or Destination Address: 192.168.86.246" hide="yes" size="4" pos="26" show="192.168.86.246" value="c0a856f6"/>
    <field name="ip.src_host" showname="Source Host: 192.168.86.246" hide="yes" size="4" pos="26" show="192.168.86.246" value="c0a856f6"/>
    <field name="ip.host" showname="Source or Destination Host: 192.168.86.246" hide="yes" size="4" pos="26" show="192.168.86.246" value="c0a856f6"/>
    <field name="ip.dst" showname="Destination: 52.20.230.126" size="4" pos="30" show="52.20.230.126" value="3414e67e"/>
    <field name="ip.addr" showname="Source or Destination Address: 52.20.230.126" hide="yes" size="4" pos="30" show="52.20.230.126" value="3414e67e"/>
    <field name="ip.dst_host" showname="Destination Host: 52.20.230.126" hide="yes" size="4" pos="30" show="52.20.230.126" value="3414e67e"/>
    <field name="ip.host" showname="Source or Destination Host: 52.20.230.126" hide="yes" size="4" pos="30" show="52.20.230.126" value="3414e67e"/>
  </proto>
  <proto name="tcp" showname="Transmission Control Protocol, Src Port: 42184, Dst Port: 443, Seq: 64, Ack: 38, Len: 0" size="32" pos="34">
    <field name="tcp.srcport" showname="Source Port: 42184" size="2" pos="34" show="42184" value="a4c8"/>
    <field name="tcp.dstport" showname="Destination Port: 443" size="2" pos="36" show="443" value="01bb"/>
    <field name="tcp.port" showname="Source or Destination Port: 42184" hide="yes" size="2" pos="34" show="42184" value="a4c8"/>
    <field name="tcp.port" showname="Source or Destination Port: 443" hide="yes" size="2" pos="36" show="443" value="01bb"/>
    <field name="tcp.stream" showname="Stream index: 0" size="0" pos="34" show="0"/>
    <field name="tcp.len" showname="TCP Segment Len: 0" size="1" pos="46" show="0" value="80"/>
    <field name="tcp.seq" showname="Sequence number: 64    (relative sequence number)" size="4" pos="38" show="64" value="3ead82c7"/>
    <field name="tcp.nxtseq" showname="Next sequence number: 64    (relative sequence number)" size="0" pos="34" show="64"/>
    <field name="tcp.ack" showname="Acknowledgment number: 38    (relative ack number)" size="4" pos="42" show="38" value="17e68fbc"/>
    <field name="tcp.hdr_len" showname="1000 .... = Header Length: 32 bytes (8)" size="1" pos="46" show="32" value="80"/>
    <field name="tcp.flags" showname="Flags: 0x010 (ACK)" size="2" pos="46" show="0x00000010" value="10" unmaskedvalue="8010">
      <field name="tcp.flags.res" showname="000. .... .... = Reserved: Not set" size="1" pos="46" show="0" value="0" unmaskedvalue="80"/>
      <field name="tcp.flags.ns" showname="...0 .... .... = Nonce: Not set" size="1" pos="46" show="0" value="0" unmaskedvalue="80"/>
      <field name="tcp.flags.cwr" showname=".... 0... .... = Congestion Window Reduced (CWR): Not set" size="1" pos="47" show="0" value="0" unmaskedvalue="10"/>
      <field name="tcp.flags.ecn" showname=".... .0.. .... = ECN-Echo: Not set" size="1" pos="47" show="0" value="0" unmaskedvalue="10"/>
      <field name="tcp.flags.urg" showname=".... ..0. .... = Urgent: Not set" size="1" pos="47" show="0" value="0" unmaskedvalue="10"/>
      <field name="tcp.flags.ack" showname=".... ...1 .... = Acknowledgment: Set" size="1" pos="47" show="1" value="1" unmaskedvalue="10"/>
      <field name="tcp.flags.push" showname=".... .... 0... = Push: Not set" size="1" pos="47" show="0" value="0" unmaskedvalue="10"/>
      <field name="tcp.flags.reset" showname=".... .... .0.. = Reset: Not set" size="1" pos="47" show="0" value="0" unmaskedvalue="10"/>
      <field name="tcp.flags.syn" showname=".... .... ..0. = Syn: Not set" size="1" pos="47" show="0" value="0" unmaskedvalue="10"/>
      <field name="tcp.flags.fin" showname=".... .... ...0 = Fin: Not set" size="1" pos="47" show="0" value="0" unmaskedvalue="10"/>
      <field name="tcp.flags.str" showname="TCP Flags: \xc2\xb7\xc2\xb7\xc2\xb7\xc2\xb7\xc2\xb7\xc2\xb7\xc2\xb7A\xc2\xb7\xc2\xb7\xc2\xb7\xc2\xb7" size="2" pos="46" show="\xc2\xb7\xc2\xb7\xc2\xb7\xc2\xb7\xc2\xb7\xc2\xb7\xc2\xb7A\xc2\xb7\xc2\xb7\xc2\xb7\xc2\xb7" value="8010"/>
    </field>
    <field name="tcp.window_size_value" showname="Window size value: 319" size="2" pos="48" show="319" value="013f"/>
    <field name="tcp.window_size" showname="Calculated window size: 319" size="2" pos="48" show="319" value="013f"/>
    <field name="tcp.window_size_scalefactor" showname="Window size scaling factor: -1 (unknown)" size="2" pos="48" show="-1" value="013f"/>
    <field name="tcp.checksum" showname="Checksum: 0x6342 [unverified]" size="2" pos="50" show="0x00006342" value="6342"/>
    <field name="tcp.checksum.status" showname="Checksum Status: Unverified" size="0" pos="50" show="2"/>
    <field name="tcp.urgent_pointer" showname="Urgent pointer: 0" size="2" pos="52" show="0" value="0000"/>
    <field name="tcp.options" showname="Options: (12 bytes), No-Operation (NOP), No-Operation (NOP), Timestamps" size="12" pos="54" show="01:01:08:0a:0c:5d:30:8e:3f:24:54:60" value="0101080a0c5d308e3f245460">
      <field name="tcp.options.nop" showname="TCP Option - No-Operation (NOP)" size="1" pos="54" show="01" value="01">
        <field name="tcp.option_kind" showname="Kind: No-Operation (1)" size="1" pos="54" show="1" value="01"/>
      </field>
      <field name="tcp.options.nop" showname="TCP Option - No-Operation (NOP)" size="1" pos="55" show="01" value="01">
        <field name="tcp.option_kind" showname="Kind: No-Operation (1)" size="1" pos="55" show="1" value="01"/>
      </field>
      <field name="tcp.options.timestamp" showname="TCP Option - Timestamps: TSval 207433870, TSecr 1059345504" size="10" pos="56" show="08:0a:0c:5d:30:8e:3f:24:54:60" value="080a0c5d308e3f245460">
        <field name="tcp.option_kind" showname="Kind: Time Stamp Option (8)" size="1" pos="56" show="8" value="08"/>
        <field name="tcp.option_len" showname="Length: 10" size="1" pos="57" show="10" value="0a"/>
        <field name="tcp.options.timestamp.tsval" showname="Timestamp value: 207433870" size="4" pos="58" show="207433870" value="0c5d308e"/>
        <field name="tcp.options.timestamp.tsecr" showname="Timestamp echo reply: 1059345504" size="4" pos="62" show="1059345504" value="3f245460"/>
      </field>
    </field>
    <field name="tcp.analysis" showname="SEQ/ACK analysis" size="0" pos="34" show="" value="">
      <field name="tcp.analysis.acks_frame" showname="This is an ACK to the segment in frame: 2" size="0" pos="34" show="2"/>
      <field name="tcp.analysis.ack_rtt" showname="The RTT to ACK the segment was: 0.000036000 seconds" size="0" pos="34" show="0.000036000"/>
    </field>
    <field name="" show="Timestamps" size="0" pos="34">
      <field name="tcp.time_relative" showname="Time since first frame in this TCP stream: 0.014923000 seconds" size="0" pos="34" show="0.014923000"/>
      <field name="tcp.time_delta" showname="Time since previous frame in this TCP stream: 0.000036000 seconds" size="0" pos="34" show="0.000036000"/>
    </field>
  </proto>
</packet>


<packet>
  <proto name="geninfo" pos="0" showname="General information" size="97">
    <field name="num" pos="0" show="4" showname="Number" value="4" size="97"/>
    <field name="len" pos="0" show="97" showname="Frame Length" value="61" size="97"/>
    <field name="caplen" pos="0" show="97" showname="Captured Length" value="61" size="97"/>
    <field name="timestamp" pos="0" show="Feb 22, 2019 22:23:01.708360000 EST" showname="Captured Time" value="1550892181.708360000" size="97"/>
  </proto>
  <proto name="frame" showname="Frame 4: 97 bytes on wire (776 bits), 97 bytes captured (776 bits)" size="97" pos="0">
    <field name="frame.encap_type" showname="Encapsulation type: Ethernet (1)" size="0" pos="0" show="1"/>
    <field name="frame.time" showname="Arrival Time: Feb 22, 2019 22:23:01.708360000 EST" size="0" pos="0" show="Feb 22, 2019 22:23:01.708360000 EST"/>
    <field name="frame.offset_shift" showname="Time shift for this packet: 0.000000000 seconds" size="0" pos="0" show="0.000000000"/>
    <field name="frame.time_epoch" showname="Epoch Time: 1550892181.708360000 seconds" size="0" pos="0" show="1550892181.708360000"/>
    <field name="frame.time_delta" showname="Time delta from previous captured frame: 0.121254000 seconds" size="0" pos="0" show="0.121254000"/>
    <field name="frame.time_delta_displayed" showname="Time delta from previous displayed frame: 0.121254000 seconds" size="0" pos="0" show="0.121254000"/>
    <field name="frame.time_relative" showname="Time since reference or first frame: 0.136177000 seconds" size="0" pos="0" show="0.136177000"/>
    <field name="frame.number" showname="Frame Number: 4" size="0" pos="0" show="4"/>
    <field name="frame.len" showname="Frame Length: 97 bytes (776 bits)" size="0" pos="0" show="97"/>
    <field name="frame.cap_len" showname="Capture Length: 97 bytes (776 bits)" size="0" pos="0" show="97"/>
    <field name="frame.marked" showname="Frame is marked: False" size="0" pos="0" show="0"/>
    <field name="frame.ignored" showname="Frame is ignored: False" size="0" pos="0" show="0"/>
    <field name="frame.protocols" showname="Protocols in frame: eth:ethertype:ip:tcp:ssl" size="0" pos="0" show="eth:ethertype:ip:tcp:ssl"/>
  </proto>
  <proto name="eth" showname="Ethernet II, Src: Tp-LinkT_19:de:6c (e8:de:27:19:de:6c), Dst: Google_d2:76:12 (30:fd:38:d2:76:12)" size="14" pos="0">
    <field name="eth.dst" showname="Destination: Google_d2:76:12 (30:fd:38:d2:76:12)" size="6" pos="0" show="30:fd:38:d2:76:12" value="30fd38d27612">
      <field name="eth.dst_resolved" showname="Destination (resolved): Google_d2:76:12" hide="yes" size="6" pos="0" show="Google_d2:76:12" value="30fd38d27612"/>
      <field name="eth.addr" showname="Address: Google_d2:76:12 (30:fd:38:d2:76:12)" size="6" pos="0" show="30:fd:38:d2:76:12" value="30fd38d27612"/>
      <field name="eth.addr_resolved" showname="Address (resolved): Google_d2:76:12" hide="yes" size="6" pos="0" show="Google_d2:76:12" value="30fd38d27612"/>
      <field name="eth.lg" showname=".... ..0. .... .... .... .... = LG bit: Globally unique address (factory default)" size="3" pos="0" show="0" value="0" unmaskedvalue="30fd38"/>
      <field name="eth.ig" showname=".... ...0 .... .... .... .... = IG bit: Individual address (unicast)" size="3" pos="0" show="0" value="0" unmaskedvalue="30fd38"/>
    </field>
    <field name="eth.src" showname="Source: Tp-LinkT_19:de:6c (e8:de:27:19:de:6c)" size="6" pos="6" show="e8:de:27:19:de:6c" value="e8de2719de6c">
      <field name="eth.src_resolved" showname="Source (resolved): Tp-LinkT_19:de:6c" hide="yes" size="6" pos="6" show="Tp-LinkT_19:de:6c" value="e8de2719de6c"/>
      <field name="eth.addr" showname="Address: Tp-LinkT_19:de:6c (e8:de:27:19:de:6c)" size="6" pos="6" show="e8:de:27:19:de:6c" value="e8de2719de6c"/>
      <field name="eth.addr_resolved" showname="Address (resolved): Tp-LinkT_19:de:6c" hide="yes" size="6" pos="6" show="Tp-LinkT_19:de:6c" value="e8de2719de6c"/>
      <field name="eth.lg" showname=".... ..0. .... .... .... .... = LG bit: Globally unique address (factory default)" size="3" pos="6" show="0" value="0" unmaskedvalue="e8de27"/>
      <field name="eth.ig" showname=".... ...0 .... .... .... .... = IG bit: Individual address (unicast)" size="3" pos="6" show="0" value="0" unmaskedvalue="e8de27"/>
    </field>
    <field name="eth.type" showname="Type: IPv4 (0x0800)" size="2" pos="12" show="0x00000800" value="0800"/>
  </proto>
  <proto name="ip" showname="Internet Protocol Version 4, Src: 192.168.86.246, Dst: 31.13.66.56" size="20" pos="14">
    <field name="ip.version" showname="0100 .... = Version: 4" size="1" pos="14" show="4" value="4" unmaskedvalue="45"/>
    <field name="ip.hdr_len" showname=".... 0101 = Header Length: 20 bytes (5)" size="1" pos="14" show="20" value="45"/>
    <field name="ip.dsfield" showname="Differentiated Services Field: 0x00 (DSCP: CS0, ECN: Not-ECT)" size="1" pos="15" show="0x00000000" value="00">
      <field name="ip.dsfield.dscp" showname="0000 00.. = Differentiated Services Codepoint: Default (0)" size="1" pos="15" show="0" value="0" unmaskedvalue="00"/>
      <field name="ip.dsfield.ecn" showname=".... ..00 = Explicit Congestion Notification: Not ECN-Capable Transport (0)" size="1" pos="15" show="0" value="0" unmaskedvalue="00"/>
    </field>
    <field name="ip.len" showname="Total Length: 83" size="2" pos="16" show="83" value="0053"/>
    <field name="ip.id" showname="Identification: 0x2316 (8982)" size="2" pos="18" show="0x00002316" value="2316"/>
    <field name="ip.flags" showname="Flags: 0x4000, Don&#x27;t fragment" size="2" pos="20" show="0x00004000" value="4000">
      <field name="ip.flags.rb" showname="0... .... .... .... = Reserved bit: Not set" size="2" pos="20" show="0" value="0" unmaskedvalue="4000"/>
      <field name="ip.flags.df" showname=".1.. .... .... .... = Don&#x27;t fragment: Set" size="2" pos="20" show="1" value="1" unmaskedvalue="4000"/>
      <field name="ip.flags.mf" showname="..0. .... .... .... = More fragments: Not set" size="2" pos="20" show="0" value="0" unmaskedvalue="4000"/>
      <field name="ip.frag_offset" showname="...0 0000 0000 0000 = Fragment offset: 0" size="2" pos="20" show="0" value="0" unmaskedvalue="4000"/>
    </field>
    <field name="ip.ttl" showname="Time to live: 64" size="1" pos="22" show="64" value="40"/>
    <field name="ip.proto" showname="Protocol: TCP (6)" size="1" pos="23" show="6" value="06"/>
    <field name="ip.checksum" showname="Header checksum: 0x9eab [correct]" size="2" pos="24" show="0x00009eab" value="9eab"/>
    <field name="ip.checksum.status" showname="Header checksum status: Good" size="0" pos="24" show="1"/>
    <field name="ip.checksum_calculated" showname="Calculated Checksum: 0x9eab" size="2" pos="24" show="0x00009eab" value="9eab"/>
    <field name="ip.src" showname="Source: 192.168.86.246" size="4" pos="26" show="192.168.86.246" value="c0a856f6"/>
    <field name="ip.addr" showname="Source or Destination Address: 192.168.86.246" hide="yes" size="4" pos="26" show="192.168.86.246" value="c0a856f6"/>
    <field name="ip.src_host" showname="Source Host: 192.168.86.246" hide="yes" size="4" pos="26" show="192.168.86.246" value="c0a856f6"/>
    <field name="ip.host" showname="Source or Destination Host: 192.168.86.246" hide="yes" size="4" pos="26" show="192.168.86.246" value="c0a856f6"/>
    <field name="ip.dst" showname="Destination: 31.13.66.56" size="4" pos="30" show="31.13.66.56" value="1f0d4238"/>
    <field name="ip.addr" showname="Source or Destination Address: 31.13.66.56" hide="yes" size="4" pos="30" show="31.13.66.56" value="1f0d4238"/>
    <field name="ip.dst_host" showname="Destination Host: 31.13.66.56" hide="yes" size="4" pos="30" show="31.13.66.56" value="1f0d4238"/>
    <field name="ip.host" showname="Source or Destination Host: 31.13.66.56" hide="yes" size="4" pos="30" show="31.13.66.56" value="1f0d4238"/>
  </proto>
  <proto name="tcp" showname="Transmission Control Protocol, Src Port: 41706, Dst Port: 443, Seq: 1, Ack: 1, Len: 31" size="32" pos="34">
    <field name="tcp.srcport" showname="Source Port: 41706" size="2" pos="34" show="41706" value="a2ea"/>
    <field name="tcp.dstport" showname="Destination Port: 443" size="2" pos="36" show="443" value="01bb"/>
    <field name="tcp.port" showname="Source or Destination Port: 41706" hide="yes" size="2" pos="34" show="41706" value="a2ea"/>
    <field name="tcp.port" showname="Source or Destination Port: 443" hide="yes" size="2" pos="36" show="443" value="01bb"/>
    <field name="tcp.stream" showname="Stream index: 1" size="0" pos="34" show="1"/>
    <field name="tcp.len" showname="TCP Segment Len: 31" size="1" pos="46" show="31" value="80"/>
    <field name="tcp.seq" showname="Sequence number: 1    (relative sequence number)" size="4" pos="38" show="1" value="9b734401"/>
    <field name="tcp.nxtseq" showname="Next sequence number: 32    (relative sequence number)" size="0" pos="34" show="32"/>
    <field name="tcp.ack" showname="Acknowledgment number: 1    (relative ack number)" size="4" pos="42" show="1" value="3fcdd0cb"/>
    <field name="tcp.hdr_len" showname="1000 .... = Header Length: 32 bytes (8)" size="1" pos="46" show="32" value="80"/>
    <field name="tcp.flags" showname="Flags: 0x018 (PSH, ACK)" size="2" pos="46" show="0x00000018" value="18" unmaskedvalue="8018">
      <field name="tcp.flags.res" showname="000. .... .... = Reserved: Not set" size="1" pos="46" show="0" value="0" unmaskedvalue="80"/>
      <field name="tcp.flags.ns" showname="...0 .... .... = Nonce: Not set" size="1" pos="46" show="0" value="0" unmaskedvalue="80"/>
      <field name="tcp.flags.cwr" showname=".... 0... .... = Congestion Window Reduced (CWR): Not set" size="1" pos="47" show="0" value="0" unmaskedvalue="18"/>
      <field name="tcp.flags.ecn" showname=".... .0.. .... = ECN-Echo: Not set" size="1" pos="47" show="0" value="0" unmaskedvalue="18"/>
      <field name="tcp.flags.urg" showname=".... ..0. .... = Urgent: Not set" size="1" pos="47" show="0" value="0" unmaskedvalue="18"/>
      <field name="tcp.flags.ack" showname=".... ...1 .... = Acknowledgment: Set" size="1" pos="47" show="1" value="1" unmaskedvalue="18"/>
      <field name="tcp.flags.push" showname=".... .... 1... = Push: Set" size="1" pos="47" show="1" value="1" unmaskedvalue="18"/>
      <field name="tcp.flags.reset" showname=".... .... .0.. = Reset: Not set" size="1" pos="47" show="0" value="0" unmaskedvalue="18"/>
      <field name="tcp.flags.syn" showname=".... .... ..0. = Syn: Not set" size="1" pos="47" show="0" value="0" unmaskedvalue="18"/>
      <field name="tcp.flags.fin" showname=".... .... ...0 = Fin: Not set" size="1" pos="47" show="0" value="0" unmaskedvalue="18"/>
      <field name="tcp.flags.str" showname="TCP Flags: \xc2\xb7\xc2\xb7\xc2\xb7\xc2\xb7\xc2\xb7\xc2\xb7\xc2\xb7AP\xc2\xb7\xc2\xb7\xc2\xb7" size="2" pos="46" show="\xc2\xb7\xc2\xb7\xc2\xb7\xc2\xb7\xc2\xb7\xc2\xb7\xc2\xb7AP\xc2\xb7\xc2\xb7\xc2\xb7" value="8018"/>
    </field>
    <field name="tcp.window_size_value" showname="Window size value: 1158" size="2" pos="48" show="1158" value="0486"/>
    <field name="tcp.window_size" showname="Calculated window size: 1158" size="2" pos="48" show="1158" value="0486"/>
    <field name="tcp.window_size_scalefactor" showname="Window size scaling factor: -1 (unknown)" size="2" pos="48" show="-1" value="0486"/>
    <field name="tcp.checksum" showname="Checksum: 0x349e [unverified]" size="2" pos="50" show="0x0000349e" value="349e"/>
    <field name="tcp.checksum.status" showname="Checksum Status: Unverified" size="0" pos="50" show="2"/>
    <field name="tcp.urgent_pointer" showname="Urgent pointer: 0" size="2" pos="52" show="0" value="0000"/>
    <field name="tcp.options" showname="Options: (12 bytes), No-Operation (NOP), No-Operation (NOP), Timestamps" size="12" pos="54" show="01:01:08:0a:7f:84:4e:30:90:2e:e5:24" value="0101080a7f844e30902ee524">
      <field name="tcp.options.nop" showname="TCP Option - No-Operation (NOP)" size="1" pos="54" show="01" value="01">
        <field name="tcp.option_kind" showname="Kind: No-Operation (1)" size="1" pos="54" show="1" value="01"/>
      </field>
      <field name="tcp.options.nop" showname="TCP Option - No-Operation (NOP)" size="1" pos="55" show="01" value="01">
        <field name="tcp.option_kind" showname="Kind: No-Operation (1)" size="1" pos="55" show="1" value="01"/>
      </field>
      <field name="tcp.options.timestamp" showname="TCP Option - Timestamps: TSval 2139377200, TSecr 2418992420" size="10" pos="56" show="08:0a:7f:84:4e:30:90:2e:e5:24" value="080a7f844e30902ee524">
        <field name="tcp.option_kind" showname="Kind: Time Stamp Option (8)" size="1" pos="56" show="8" value="08"/>
        <field name="tcp.option_len" showname="Length: 10" size="1" pos="57" show="10" value="0a"/>
        <field name="tcp.options.timestamp.tsval" showname="Timestamp value: 2139377200" size="4" pos="58" show="2139377200" value="7f844e30"/>
        <field name="tcp.options.timestamp.tsecr" showname="Timestamp echo reply: 2418992420" size="4" pos="62" show="2418992420" value="902ee524"/>
      </field>
    </field>
    <field name="tcp.analysis" showname="SEQ/ACK analysis" size="0" pos="34" show="" value="">
      <field name="tcp.analysis.bytes_in_flight" showname="Bytes in flight: 31" size="0" pos="34" show="31"/>
      <field name="tcp.analysis.push_bytes_sent" showname="Bytes sent since last PSH flag: 31" size="0" pos="34" show="31"/>
    </field>
    <field name="" show="Timestamps" size="0" pos="34">
      <field name="tcp.time_relative" showname="Time since first frame in this TCP stream: 0.000000000 seconds" size="0" pos="34" show="0.000000000"/>
      <field name="tcp.time_delta" showname="Time since previous frame in this TCP stream: 0.000000000 seconds" size="0" pos="34" show="0.000000000"/>
    </field>
    <field name="tcp.payload" showname="TCP payload (31 bytes)" size="31" pos="66" show="17:03:03:00:1a:51:02:04:20:f7:1d:99:45:8a:99:3d:a0:86:74:df:f5:b2:6e:dc:16:a4:56:54:11:34:a1" value="170303001a51020420f71d99458a993da08674dff5b26edc16a456541134a1"/>
  </proto>
  <proto name="ssl" showname="Secure Sockets Layer" size="31" pos="66">
    <field name="ssl.record" showname="TLSv1.2 Record Layer: Application Data Protocol: http-over-tls" size="31" pos="66" show="" value="">
      <field name="ssl.record.content_type" showname="Content Type: Application Data (23)" size="1" pos="66" show="23" value="17"/>
      <field name="ssl.record.version" showname="Version: TLS 1.2 (0x0303)" size="2" pos="67" show="0x00000303" value="0303"/>
      <field name="ssl.record.length" showname="Length: 26" size="2" pos="69" show="26" value="001a"/>
      <field name="ssl.app_data" showname="Encrypted Application Data: 51020420f71d99458a993da08674dff5b26edc16a4565411..." size="26" pos="71" show="51:02:04:20:f7:1d:99:45:8a:99:3d:a0:86:74:df:f5:b2:6e:dc:16:a4:56:54:11:34:a1" value="51020420f71d99458a993da08674dff5b26edc16a456541134a1"/>
    </field>
  </proto>
</packet>


<packet>
  <proto name="geninfo" pos="0" showname="General information" size="104">
    <field name="num" pos="0" show="5" showname="Number" value="5" size="104"/>
    <field name="len" pos="0" show="104" showname="Frame Length" value="68" size="104"/>
    <field name="caplen" pos="0" show="104" showname="Captured Length" value="68" size="104"/>
    <field name="timestamp" pos="0" show="Feb 22, 2019 22:23:01.743731000 EST" showname="Captured Time" value="1550892181.743731000" size="104"/>
  </proto>
  <proto name="frame" showname="Frame 5: 104 bytes on wire (832 bits), 104 bytes captured (832 bits)" size="104" pos="0">
    <field name="frame.encap_type" showname="Encapsulation type: Ethernet (1)" size="0" pos="0" show="1"/>
    <field name="frame.time" showname="Arrival Time: Feb 22, 2019 22:23:01.743731000 EST" size="0" pos="0" show="Feb 22, 2019 22:23:01.743731000 EST"/>
    <field name="frame.offset_shift" showname="Time shift for this packet: 0.000000000 seconds" size="0" pos="0" show="0.000000000"/>
    <field name="frame.time_epoch" showname="Epoch Time: 1550892181.743731000 seconds" size="0" pos="0" show="1550892181.743731000"/>
    <field name="frame.time_delta" showname="Time delta from previous captured frame: 0.035371000 seconds" size="0" pos="0" show="0.035371000"/>
    <field name="frame.time_delta_displayed" showname="Time delta from previous displayed frame: 0.035371000 seconds" size="0" pos="0" show="0.035371000"/>
    <field name="frame.time_relative" showname="Time since reference or first frame: 0.171548000 seconds" size="0" pos="0" show="0.171548000"/>
    <field name="frame.number" showname="Frame Number: 5" size="0" pos="0" show="5"/>
    <field name="frame.len" showname="Frame Length: 104 bytes (832 bits)" size="0" pos="0" show="104"/>
    <field name="frame.cap_len" showname="Capture Length: 104 bytes (832 bits)" size="0" pos="0" show="104"/>
    <field name="frame.marked" showname="Frame is marked: False" size="0" pos="0" show="0"/>
    <field name="frame.ignored" showname="Frame is ignored: False" size="0" pos="0" show="0"/>
    <field name="frame.protocols" showname="Protocols in frame: eth:ethertype:ip:tcp:ssl" size="0" pos="0" show="eth:ethertype:ip:tcp:ssl"/>
  </proto>
  <proto name="eth" showname="Ethernet II, Src: Google_d2:76:12 (30:fd:38:d2:76:12), Dst: Tp-LinkT_19:de:6c (e8:de:27:19:de:6c)" size="14" pos="0">
    <field name="eth.dst" showname="Destination: Tp-LinkT_19:de:6c (e8:de:27:19:de:6c)" size="6" pos="0" show="e8:de:27:19:de:6c" value="e8de2719de6c">
      <field name="eth.dst_resolved" showname="Destination (resolved): Tp-LinkT_19:de:6c" hide="yes" size="6" pos="0" show="Tp-LinkT_19:de:6c" value="e8de2719de6c"/>
      <field name="eth.addr" showname="Address: Tp-LinkT_19:de:6c (e8:de:27:19:de:6c)" size="6" pos="0" show="e8:de:27:19:de:6c" value="e8de2719de6c"/>
      <field name="eth.addr_resolved" showname="Address (resolved): Tp-LinkT_19:de:6c" hide="yes" size="6" pos="0" show="Tp-LinkT_19:de:6c" value="e8de2719de6c"/>
      <field name="eth.lg" showname=".... ..0. .... .... .... .... = LG bit: Globally unique address (factory default)" size="3" pos="0" show="0" value="0" unmaskedvalue="e8de27"/>
      <field name="eth.ig" showname=".... ...0 .... .... .... .... = IG bit: Individual address (unicast)" size="3" pos="0" show="0" value="0" unmaskedvalue="e8de27"/>
    </field>
    <field name="eth.src" showname="Source: Google_d2:76:12 (30:fd:38:d2:76:12)" size="6" pos="6" show="30:fd:38:d2:76:12" value="30fd38d27612">
      <field name="eth.src_resolved" showname="Source (resolved): Google_d2:76:12" hide="yes" size="6" pos="6" show="Google_d2:76:12" value="30fd38d27612"/>
      <field name="eth.addr" showname="Address: Google_d2:76:12 (30:fd:38:d2:76:12)" size="6" pos="6" show="30:fd:38:d2:76:12" value="30fd38d27612"/>
      <field name="eth.addr_resolved" showname="Address (resolved): Google_d2:76:12" hide="yes" size="6" pos="6" show="Google_d2:76:12" value="30fd38d27612"/>
      <field name="eth.lg" showname=".... ..0. .... .... .... .... = LG bit: Globally unique address (factory default)" size="3" pos="6" show="0" value="0" unmaskedvalue="30fd38"/>
      <field name="eth.ig" showname=".... ...0 .... .... .... .... = IG bit: Individual address (unicast)" size="3" pos="6" show="0" value="0" unmaskedvalue="30fd38"/>
    </field>
    <field name="eth.type" showname="Type: IPv4 (0x0800)" size="2" pos="12" show="0x00000800" value="0800"/>
  </proto>
  <proto name="ip" showname="Internet Protocol Version 4, Src: 31.13.66.56, Dst: 192.168.86.246" size="20" pos="14">
    <field name="ip.version" showname="0100 .... = Version: 4" size="1" pos="14" show="4" value="4" unmaskedvalue="45"/>
    <field name="ip.hdr_len" showname=".... 0101 = Header Length: 20 bytes (5)" size="1" pos="14" show="20" value="45"/>
    <field name="ip.dsfield" showname="Differentiated Services Field: 0x00 (DSCP: CS0, ECN: Not-ECT)" size="1" pos="15" show="0x00000000" value="00">
      <field name="ip.dsfield.dscp" showname="0000 00.. = Differentiated Services Codepoint: Default (0)" size="1" pos="15" show="0" value="0" unmaskedvalue="00"/>
      <field name="ip.dsfield.ecn" showname=".... ..00 = Explicit Congestion Notification: Not ECN-Capable Transport (0)" size="1" pos="15" show="0" value="0" unmaskedvalue="00"/>
    </field>
    <field name="ip.len" showname="Total Length: 90" size="2" pos="16" show="90" value="005a"/>
    <field name="ip.id" showname="Identification: 0x07d4 (2004)" size="2" pos="18" show="0x000007d4" value="07d4"/>
    <field name="ip.flags" showname="Flags: 0x4000, Don&#x27;t fragment" size="2" pos="20" show="0x00004000" value="4000">
      <field name="ip.flags.rb" showname="0... .... .... .... = Reserved bit: Not set" size="2" pos="20" show="0" value="0" unmaskedvalue="4000"/>
      <field name="ip.flags.df" showname=".1.. .... .... .... = Don&#x27;t fragment: Set" size="2" pos="20" show="1" value="1" unmaskedvalue="4000"/>
      <field name="ip.flags.mf" showname="..0. .... .... .... = More fragments: Not set" size="2" pos="20" show="0" value="0" unmaskedvalue="4000"/>
      <field name="ip.frag_offset" showname="...0 0000 0000 0000 = Fragment offset: 0" size="2" pos="20" show="0" value="0" unmaskedvalue="4000"/>
    </field>
    <field name="ip.ttl" showname="Time to live: 88" size="1" pos="22" show="88" value="58"/>
    <field name="ip.proto" showname="Protocol: TCP (6)" size="1" pos="23" show="6" value="06"/>
    <field name="ip.checksum" showname="Header checksum: 0xa1e6 [correct]" size="2" pos="24" show="0x0000a1e6" value="a1e6"/>
    <field name="ip.checksum.status" showname="Header checksum status: Good" size="0" pos="24" show="1"/>
    <field name="ip.checksum_calculated" showname="Calculated Checksum: 0xa1e6" size="2" pos="24" show="0x0000a1e6" value="a1e6"/>
    <field name="ip.src" showname="Source: 31.13.66.56" size="4" pos="26" show="31.13.66.56" value="1f0d4238"/>
    <field name="ip.addr" showname="Source or Destination Address: 31.13.66.56" hide="yes" size="4" pos="26" show="31.13.66.56" value="1f0d4238"/>
    <field name="ip.src_host" showname="Source Host: 31.13.66.56" hide="yes" size="4" pos="26" show="31.13.66.56" value="1f0d4238"/>
    <field name="ip.host" showname="Source or Destination Host: 31.13.66.56" hide="yes" size="4" pos="26" show="31.13.66.56" value="1f0d4238"/>
    <field name="ip.dst" showname="Destination: 192.168.86.246" size="4" pos="30" show="192.168.86.246" value="c0a856f6"/>
    <field name="ip.addr" showname="Source or Destination Address: 192.168.86.246" hide="yes" size="4" pos="30" show="192.168.86.246" value="c0a856f6"/>
    <field name="ip.dst_host" showname="Destination Host: 192.168.86.246" hide="yes" size="4" pos="30" show="192.168.86.246" value="c0a856f6"/>
    <field name="ip.host" showname="Source or Destination Host: 192.168.86.246" hide="yes" size="4" pos="30" show="192.168.86.246" value="c0a856f6"/>
  </proto>
  <proto name="tcp" showname="Transmission Control Protocol, Src Port: 443, Dst Port: 41706, Seq: 1, Ack: 32, Len: 38" size="32" pos="34">
    <field name="tcp.srcport" showname="Source Port: 443" size="2" pos="34" show="443" value="01bb"/>
    <field name="tcp.dstport" showname="Destination Port: 41706" size="2" pos="36" show="41706" value="a2ea"/>
    <field name="tcp.port" showname="Source or Destination Port: 443" hide="yes" size="2" pos="34" show="443" value="01bb"/>
    <field name="tcp.port" showname="Source or Destination Port: 41706" hide="yes" size="2" pos="36" show="41706" value="a2ea"/>
    <field name="tcp.stream" showname="Stream index: 1" size="0" pos="34" show="1"/>
    <field name="tcp.len" showname="TCP Segment Len: 38" size="1" pos="46" show="38" value="80"/>
    <field name="tcp.seq" showname="Sequence number: 1    (relative sequence number)" size="4" pos="38" show="1" value="3fcdd0cb"/>
    <field name="tcp.nxtseq" showname="Next sequence number: 39    (relative sequence number)" size="0" pos="34" show="39"/>
    <field name="tcp.ack" showname="Acknowledgment number: 32    (relative ack number)" size="4" pos="42" show="32" value="9b734420"/>
    <field name="tcp.hdr_len" showname="1000 .... = Header Length: 32 bytes (8)" size="1" pos="46" show="32" value="80"/>
    <field name="tcp.flags" showname="Flags: 0x018 (PSH, ACK)" size="2" pos="46" show="0x00000018" value="18" unmaskedvalue="8018">
      <field name="tcp.flags.res" showname="000. .... .... = Reserved: Not set" size="1" pos="46" show="0" value="0" unmaskedvalue="80"/>
      <field name="tcp.flags.ns" showname="...0 .... .... = Nonce: Not set" size="1" pos="46" show="0" value="0" unmaskedvalue="80"/>
      <field name="tcp.flags.cwr" showname=".... 0... .... = Congestion Window Reduced (CWR): Not set" size="1" pos="47" show="0" value="0" unmaskedvalue="18"/>
      <field name="tcp.flags.ecn" showname=".... .0.. .... = ECN-Echo: Not set" size="1" pos="47" show="0" value="0" unmaskedvalue="18"/>
      <field name="tcp.flags.urg" showname=".... ..0. .... = Urgent: Not set" size="1" pos="47" show="0" value="0" unmaskedvalue="18"/>
      <field name="tcp.flags.ack" showname=".... ...1 .... = Acknowledgment: Set" size="1" pos="47" show="1" value="1" unmaskedvalue="18"/>
      <field name="tcp.flags.push" showname=".... .... 1... = Push: Set" size="1" pos="47" show="1" value="1" unmaskedvalue="18"/>
      <field name="tcp.flags.reset" showname=".... .... .0.. = Reset: Not set" size="1" pos="47" show="0" value="0" unmaskedvalue="18"/>
      <field name="tcp.flags.syn" showname=".... .... ..0. = Syn: Not set" size="1" pos="47" show="0" value="0" unmaskedvalue="18"/>
      <field name="tcp.flags.fin" showname=".... .... ...0 = Fin: Not set" size="1" pos="47" show="0" value="0" unmaskedvalue="18"/>
      <field name="tcp.flags.str" showname="TCP Flags: \xc2\xb7\xc2\xb7\xc2\xb7\xc2\xb7\xc2\xb7\xc2\xb7\xc2\xb7AP\xc2\xb7\xc2\xb7\xc2\xb7" size="2" pos="46" show="\xc2\xb7\xc2\xb7\xc2\xb7\xc2\xb7\xc2\xb7\xc2\xb7\xc2\xb7AP\xc2\xb7\xc2\xb7\xc2\xb7" value="8018"/>
    </field>
    <field name="tcp.window_size_value" showname="Window size value: 193" size="2" pos="48" show="193" value="00c1"/>
    <field name="tcp.window_size" showname="Calculated window size: 193" size="2" pos="48" show="193" value="00c1"/>
    <field name="tcp.window_size_scalefactor" showname="Window size scaling factor: -1 (unknown)" size="2" pos="48" show="-1" value="00c1"/>
    <field name="tcp.checksum" showname="Checksum: 0x5dea [unverified]" size="2" pos="50" show="0x00005dea" value="5dea"/>
    <field name="tcp.checksum.status" showname="Checksum Status: Unverified" size="0" pos="50" show="2"/>
    <field name="tcp.urgent_pointer" showname="Urgent pointer: 0" size="2" pos="52" show="0" value="0000"/>
    <field name="tcp.options" showname="Options: (12 bytes), No-Operation (NOP), No-Operation (NOP), Timestamps" size="12" pos="54" show="01:01:08:0a:90:2f:39:1e:7f:84:4e:30" value="0101080a902f391e7f844e30">
      <field name="tcp.options.nop" showname="TCP Option - No-Operation (NOP)" size="1" pos="54" show="01" value="01">
        <field name="tcp.option_kind" showname="Kind: No-Operation (1)" size="1" pos="54" show="1" value="01"/>
      </field>
      <field name="tcp.options.nop" showname="TCP Option - No-Operation (NOP)" size="1" pos="55" show="01" value="01">
        <field name="tcp.option_kind" showname="Kind: No-Operation (1)" size="1" pos="55" show="1" value="01"/>
      </field>
      <field name="tcp.options.timestamp" showname="TCP Option - Timestamps: TSval 2419013918, TSecr 2139377200" size="10" pos="56" show="08:0a:90:2f:39:1e:7f:84:4e:30" value="080a902f391e7f844e30">
        <field name="tcp.option_kind" showname="Kind: Time Stamp Option (8)" size="1" pos="56" show="8" value="08"/>
        <field name="tcp.option_len" showname="Length: 10" size="1" pos="57" show="10" value="0a"/>
        <field name="tcp.options.timestamp.tsval" showname="Timestamp value: 2419013918" size="4" pos="58" show="2419013918" value="902f391e"/>
        <field name="tcp.options.timestamp.tsecr" showname="Timestamp echo reply: 2139377200" size="4" pos="62" show="2139377200" value="7f844e30"/>
      </field>
    </field>
    <field name="tcp.analysis" showname="SEQ/ACK analysis" size="0" pos="34" show="" value="">
      <field name="tcp.analysis.acks_frame" showname="This is an ACK to the segment in frame: 4" size="0" pos="34" show="4"/>
      <field name="tcp.analysis.ack_rtt" showname="The RTT to ACK the segment was: 0.035371000 seconds" size="0" pos="34" show="0.035371000"/>
      <field name="tcp.analysis.bytes_in_flight" showname="Bytes in flight: 38" size="0" pos="34" show="38"/>
      <field name="tcp.analysis.push_bytes_sent" showname="Bytes sent since last PSH flag: 38" size="0" pos="34" show="38"/>
    </field>
    <field name="" show="Timestamps" size="0" pos="34">
      <field name="tcp.time_relative" showname="Time since first frame in this TCP stream: 0.035371000 seconds" size="0" pos="34" show="0.035371000"/>
      <field name="tcp.time_delta" showname="Time since previous frame in this TCP stream: 0.035371000 seconds" size="0" pos="34" show="0.035371000"/>
    </field>
    <field name="tcp.payload" showname="TCP payload (38 bytes)" size="38" pos="66" show="17:03:03:00:21:3a:3f:24:21:3e:3a:54:25:3c:fe:af:72:f2:61:fb:c4:a3:c4:19:1e:e5:cc:25:96:e2:7d:36:8b:ef:94:f6:fb:95" value="17030300213a3f24213e3a54253cfeaf72f261fbc4a3c4191ee5cc2596e27d368bef94f6fb95"/>
  </proto>
  <proto name="ssl" showname="Secure Sockets Layer" size="38" pos="66">
    <field name="ssl.record" showname="TLSv1.2 Record Layer: Application Data Protocol: http-over-tls" size="38" pos="66" show="" value="">
      <field name="ssl.record.content_type" showname="Content Type: Application Data (23)" size="1" pos="66" show="23" value="17"/>
      <field name="ssl.record.version" showname="Version: TLS 1.2 (0x0303)" size="2" pos="67" show="0x00000303" value="0303"/>
      <field name="ssl.record.length" showname="Length: 33" size="2" pos="69" show="33" value="0021"/>
      <field name="ssl.app_data" showname="Encrypted Application Data: 3a3f24213e3a54253cfeaf72f261fbc4a3c4191ee5cc2596..." size="33" pos="71" show="3a:3f:24:21:3e:3a:54:25:3c:fe:af:72:f2:61:fb:c4:a3:c4:19:1e:e5:cc:25:96:e2:7d:36:8b:ef:94:f6:fb:95" value="3a3f24213e3a54253cfeaf72f261fbc4a3c4191ee5cc2596e27d368bef94f6fb95"/>
    </field>
  </proto>
</packet>


<packet>
  <proto name="geninfo" pos="0" showname="General information" size="66">
    <field name="num" pos="0" show="6" showname="Number" value="6" size="66"/>
    <field name="len" pos="0" show="66" showname="Frame Length" value="42" size="66"/>
    <field name="caplen" pos="0" show="66" showname="Captured Length" value="42" size="66"/>
    <field name="timestamp" pos="0" show="Feb 22, 2019 22:23:01.743775000 EST" showname="Captured Time" value="1550892181.743775000" size="66"/>
  </proto>
  <proto name="frame" showname="Frame 6: 66 bytes on wire (528 bits), 66 bytes captured (528 bits)" size="66" pos="0">
    <field name="frame.encap_type" showname="Encapsulation type: Ethernet (1)" size="0" pos="0" show="1"/>
    <field name="frame.time" showname="Arrival Time: Feb 22, 2019 22:23:01.743775000 EST" size="0" pos="0" show="Feb 22, 2019 22:23:01.743775000 EST"/>
    <field name="frame.offset_shift" showname="Time shift for this packet: 0.000000000 seconds" size="0" pos="0" show="0.000000000"/>
    <field name="frame.time_epoch" showname="Epoch Time: 1550892181.743775000 seconds" size="0" pos="0" show="1550892181.743775000"/>
    <field name="frame.time_delta" showname="Time delta from previous captured frame: 0.000044000 seconds" size="0" pos="0" show="0.000044000"/>
    <field name="frame.time_delta_displayed" showname="Time delta from previous displayed frame: 0.000044000 seconds" size="0" pos="0" show="0.000044000"/>
    <field name="frame.time_relative" showname="Time since reference or first frame: 0.171592000 seconds" size="0" pos="0" show="0.171592000"/>
    <field name="frame.number" showname="Frame Number: 6" size="0" pos="0" show="6"/>
    <field name="frame.len" showname="Frame Length: 66 bytes (528 bits)" size="0" pos="0" show="66"/>
    <field name="frame.cap_len" showname="Capture Length: 66 bytes (528 bits)" size="0" pos="0" show="66"/>
    <field name="frame.marked" showname="Frame is marked: False" size="0" pos="0" show="0"/>
    <field name="frame.ignored" showname="Frame is ignored: False" size="0" pos="0" show="0"/>
    <field name="frame.protocols" showname="Protocols in frame: eth:ethertype:ip:tcp" size="0" pos="0" show="eth:ethertype:ip:tcp"/>
  </proto>
  <proto name="eth" showname="Ethernet II, Src: Tp-LinkT_19:de:6c (e8:de:27:19:de:6c), Dst: Google_d2:76:12 (30:fd:38:d2:76:12)" size="14" pos="0">
    <field name="eth.dst" showname="Destination: Google_d2:76:12 (30:fd:38:d2:76:12)" size="6" pos="0" show="30:fd:38:d2:76:12" value="30fd38d27612">
      <field name="eth.dst_resolved" showname="Destination (resolved): Google_d2:76:12" hide="yes" size="6" pos="0" show="Google_d2:76:12" value="30fd38d27612"/>
      <field name="eth.addr" showname="Address: Google_d2:76:12 (30:fd:38:d2:76:12)" size="6" pos="0" show="30:fd:38:d2:76:12" value="30fd38d27612"/>
      <field name="eth.addr_resolved" showname="Address (resolved): Google_d2:76:12" hide="yes" size="6" pos="0" show="Google_d2:76:12" value="30fd38d27612"/>
      <field name="eth.lg" showname=".... ..0. .... .... .... .... = LG bit: Globally unique address (factory default)" size="3" pos="0" show="0" value="0" unmaskedvalue="30fd38"/>
      <field name="eth.ig" showname=".... ...0 .... .... .... .... = IG bit: Individual address (unicast)" size="3" pos="0" show="0" value="0" unmaskedvalue="30fd38"/>
    </field>
    <field name="eth.src" showname="Source: Tp-LinkT_19:de:6c (e8:de:27:19:de:6c)" size="6" pos="6" show="e8:de:27:19:de:6c" value="e8de2719de6c">
      <field name="eth.src_resolved" showname="Source (resolved): Tp-LinkT_19:de:6c" hide="yes" size="6" pos="6" show="Tp-LinkT_19:de:6c" value="e8de2719de6c"/>
      <field name="eth.addr" showname="Address: Tp-LinkT_19:de:6c (e8:de:27:19:de:6c)" size="6" pos="6" show="e8:de:27:19:de:6c" value="e8de2719de6c"/>
      <field name="eth.addr_resolved" showname="Address (resolved): Tp-LinkT_19:de:6c" hide="yes" size="6" pos="6" show="Tp-LinkT_19:de:6c" value="e8de2719de6c"/>
      <field name="eth.lg" showname=".... ..0. .... .... .... .... = LG bit: Globally unique address (factory default)" size="3" pos="6" show="0" value="0" unmaskedvalue="e8de27"/>
      <field name="eth.ig" showname=".... ...0 .... .... .... .... = IG bit: Individual address (unicast)" size="3" pos="6" show="0" value="0" unmaskedvalue="e8de27"/>
    </field>
    <field name="eth.type" showname="Type: IPv4 (0x0800)" size="2" pos="12" show="0x00000800" value="0800"/>
  </proto>
  <proto name="ip" showname="Internet Protocol Version 4, Src: 192.168.86.246, Dst: 31.13.66.56" size="20" pos="14">
    <field name="ip.version" showname="0100 .... = Version: 4" size="1" pos="14" show="4" value="4" unmaskedvalue="45"/>
    <field name="ip.hdr_len" showname=".... 0101 = Header Length: 20 bytes (5)" size="1" pos="14" show="20" value="45"/>
    <field name="ip.dsfield" showname="Differentiated Services Field: 0x00 (DSCP: CS0, ECN: Not-ECT)" size="1" pos="15" show="0x00000000" value="00">
      <field name="ip.dsfield.dscp" showname="0000 00.. = Differentiated Services Codepoint: Default (0)" size="1" pos="15" show="0" value="0" unmaskedvalue="00"/>
      <field name="ip.dsfield.ecn" showname=".... ..00 = Explicit Congestion Notification: Not ECN-Capable Transport (0)" size="1" pos="15" show="0" value="0" unmaskedvalue="00"/>
    </field>
    <field name="ip.len" showname="Total Length: 52" size="2" pos="16" show="52" value="0034"/>
    <field name="ip.id" showname="Identification: 0x2317 (8983)" size="2" pos="18" show="0x00002317" value="2317"/>
    <field name="ip.flags" showname="Flags: 0x4000, Don&#x27;t fragment" size="2" pos="20" show="0x00004000" value="4000">
      <field name="ip.flags.rb" showname="0... .... .... .... = Reserved bit: Not set" size="2" pos="20" show="0" value="0" unmaskedvalue="4000"/>
      <field name="ip.flags.df" showname=".1.. .... .... .... = Don&#x27;t fragment: Set" size="2" pos="20" show="1" value="1" unmaskedvalue="4000"/>
      <field name="ip.flags.mf" showname="..0. .... .... .... = More fragments: Not set" size="2" pos="20" show="0" value="0" unmaskedvalue="4000"/>
      <field name="ip.frag_offset" showname="...0 0000 0000 0000 = Fragment offset: 0" size="2" pos="20" show="0" value="0" unmaskedvalue="4000"/>
    </field>
    <field name="ip.ttl" showname="Time to live: 64" size="1" pos="22" show="64" value="40"/>
    <field name="ip.proto" showname="Protocol: TCP (6)" size="1" pos="23" show="6" value="06"/>
    <field name="ip.checksum" showname="Header checksum: 0x9ec9 [correct]" size="2" pos="24" show="0x00009ec9" value="9ec9"/>
    <field name="ip.checksum.status" showname="Header checksum status: Good" size="0" pos="24" show="1"/>
    <field name="ip.checksum_calculated" showname="Calculated Checksum: 0x9ec9" size="2" pos="24" show="0x00009ec9" value="9ec9"/>
    <field name="ip.src" showname="Source: 192.168.86.246" size="4" pos="26" show="192.168.86.246" value="c0a856f6"/>
    <field name="ip.addr" showname="Source or Destination Address: 192.168.86.246" hide="yes" size="4" pos="26" show="192.168.86.246" value="c0a856f6"/>
    <field name="ip.src_host" showname="Source Host: 192.168.86.246" hide="yes" size="4" pos="26" show="192.168.86.246" value="c0a856f6"/>
    <field name="ip.host" showname="Source or Destination Host: 192.168.86.246" hide="yes" size="4" pos="26" show="192.168.86.246" value="c0a856f6"/>
    <field name="ip.dst" showname="Destination: 31.13.66.56" size="4" pos="30" show="31.13.66.56" value="1f0d4238"/>
    <field name="ip.addr" showname="Source or Destination Address: 31.13.66.56" hide="yes" size="4" pos="30" show="31.13.66.56" value="1f0d4238"/>
    <field name="ip.dst_host" showname="Destination Host: 31.13.66.56" hide="yes" size="4" pos="30" show="31.13.66.56" value="1f0d4238"/>
    <field name="ip.host" showname="Source or Destination Host: 31.13.66.56" hide="yes" size="4" pos="30" show="31.13.66.56" value="1f0d4238"/>
  </proto>
  <proto name="tcp" showname="Transmission Control Protocol, Src Port: 41706, Dst Port: 443, Seq: 32, Ack: 39, Len: 0" size="32" pos="34">
    <field name="tcp.srcport" showname="Source Port: 41706" size="2" pos="34" show="41706" value="a2ea"/>
    <field name="tcp.dstport" showname="Destination Port: 443" size="2" pos="36" show="443" value="01bb"/>
    <field name="tcp.port" showname="Source or Destination Port: 41706" hide="yes" size="2" pos="34" show="41706" value="a2ea"/>
    <field name="tcp.port" showname="Source or Destination Port: 443" hide="yes" size="2" pos="36" show="443" value="01bb"/>
    <field name="tcp.stream" showname="Stream index: 1" size="0" pos="34" show="1"/>
    <field name="tcp.len" showname="TCP Segment Len: 0" size="1" pos="46" show="0" value="80"/>
    <field name="tcp.seq" showname="Sequence number: 32    (relative sequence number)" size="4" pos="38" show="32" value="9b734420"/>
    <field name="tcp.nxtseq" showname="Next sequence number: 32    (relative sequence number)" size="0" pos="34" show="32"/>
    <field name="tcp.ack" showname="Acknowledgment number: 39    (relative ack number)" size="4" pos="42" show="39" value="3fcdd0f1"/>
    <field name="tcp.hdr_len" showname="1000 .... = Header Length: 32 bytes (8)" size="1" pos="46" show="32" value="80"/>
    <field name="tcp.flags" showname="Flags: 0x010 (ACK)" size="2" pos="46" show="0x00000010" value="10" unmaskedvalue="8010">
      <field name="tcp.flags.res" showname="000. .... .... = Reserved: Not set" size="1" pos="46" show="0" value="0" unmaskedvalue="80"/>
      <field name="tcp.flags.ns" showname="...0 .... .... = Nonce: Not set" size="1" pos="46" show="0" value="0" unmaskedvalue="80"/>
      <field name="tcp.flags.cwr" showname=".... 0... .... = Congestion Window Reduced (CWR): Not set" size="1" pos="47" show="0" value="0" unmaskedvalue="10"/>
      <field name="tcp.flags.ecn" showname=".... .0.. .... = ECN-Echo: Not set" size="1" pos="47" show="0" value="0" unmaskedvalue="10"/>
      <field name="tcp.flags.urg" showname=".... ..0. .... = Urgent: Not set" size="1" pos="47" show="0" value="0" unmaskedvalue="10"/>
      <field name="tcp.flags.ack" showname=".... ...1 .... = Acknowledgment: Set" size="1" pos="47" show="1" value="1" unmaskedvalue="10"/>
      <field name="tcp.flags.push" showname=".... .... 0... = Push: Not set" size="1" pos="47" show="0" value="0" unmaskedvalue="10"/>
      <field name="tcp.flags.reset" showname=".... .... .0.. = Reset: Not set" size="1" pos="47" show="0" value="0" unmaskedvalue="10"/>
      <field name="tcp.flags.syn" showname=".... .... ..0. = Syn: Not set" size="1" pos="47" show="0" value="0" unmaskedvalue="10"/>
      <field name="tcp.flags.fin" showname=".... .... ...0 = Fin: Not set" size="1" pos="47" show="0" value="0" unmaskedvalue="10"/>
      <field name="tcp.flags.str" showname="TCP Flags: \xc2\xb7\xc2\xb7\xc2\xb7\xc2\xb7\xc2\xb7\xc2\xb7\xc2\xb7A\xc2\xb7\xc2\xb7\xc2\xb7\xc2\xb7" size="2" pos="46" show="\xc2\xb7\xc2\xb7\xc2\xb7\xc2\xb7\xc2\xb7\xc2\xb7\xc2\xb7A\xc2\xb7\xc2\xb7\xc2\xb7\xc2\xb7" value="8010"/>
    </field>
    <field name="tcp.window_size_value" showname="Window size value: 1158" size="2" pos="48" show="1158" value="0486"/>
    <field name="tcp.window_size" showname="Calculated window size: 1158" size="2" pos="48" show="1158" value="0486"/>
    <field name="tcp.window_size_scalefactor" showname="Window size scaling factor: -1 (unknown)" size="2" pos="48" show="-1" value="0486"/>
    <field name="tcp.checksum" showname="Checksum: 0xcd34 [unverified]" size="2" pos="50" show="0x0000cd34" value="cd34"/>
    <field name="tcp.checksum.status" showname="Checksum Status: Unverified" size="0" pos="50" show="2"/>
    <field name="tcp.urgent_pointer" showname="Urgent pointer: 0" size="2" pos="52" show="0" value="0000"/>
    <field name="tcp.options" showname="Options: (12 bytes), No-Operation (NOP), No-Operation (NOP), Timestamps" size="12" pos="54" show="01:01:08:0a:7f:84:4e:54:90:2f:39:1e" value="0101080a7f844e54902f391e">
      <field name="tcp.options.nop" showname="TCP Option - No-Operation (NOP)" size="1" pos="54" show="01" value="01">
        <field name="tcp.option_kind" showname="Kind: No-Operation (1)" size="1" pos="54" show="1" value="01"/>
      </field>
      <field name="tcp.options.nop" showname="TCP Option - No-Operation (NOP)" size="1" pos="55" show="01" value="01">
        <field name="tcp.option_kind" showname="Kind: No-Operation (1)" size="1" pos="55" show="1" value="01"/>
      </field>
      <field name="tcp.options.timestamp" showname="TCP Option - Timestamps: TSval 2139377236, TSecr 2419013918" size="10" pos="56" show="08:0a:7f:84:4e:54:90:2f:39:1e" value="080a7f844e54902f391e">
        <field name="tcp.option_kind" showname="Kind: Time Stamp Option (8)" size="1" pos="56" show="8" value="08"/>
        <field name="tcp.option_len" showname="Length: 10" size="1" pos="57" show="10" value="0a"/>
        <field name="tcp.options.timestamp.tsval" showname="Timestamp value: 2139377236" size="4" pos="58" show="2139377236" value="7f844e54"/>
        <field name="tcp.options.timestamp.tsecr" showname="Timestamp echo reply: 2419013918" size="4" pos="62" show="2419013918" value="902f391e"/>
      </field>
    </field>
    <field name="tcp.analysis" showname="SEQ/ACK analysis" size="0" pos="34" show="" value="">
      <field name="tcp.analysis.acks_frame" showname="This is an ACK to the segment in frame: 5" size="0" pos="34" show="5"/>
      <field name="tcp.analysis.ack_rtt" showname="The RTT to ACK the segment was: 0.000044000 seconds" size="0" pos="34" show="0.000044000"/>
    </field>
    <field name="" show="Timestamps" size="0" pos="34">
      <field name="tcp.time_relative" showname="Time since first frame in this TCP stream: 0.035415000 seconds" size="0" pos="34" show="0.035415000"/>
      <field name="tcp.time_delta" showname="Time since previous frame in this TCP stream: 0.000044000 seconds" size="0" pos="34" show="0.000044000"/>
    </field>
  </proto>
</packet>


<packet>
  <proto name="geninfo" pos="0" showname="General information" size="143">
    <field name="num" pos="0" show="7" showname="Number" value="7" size="143"/>
    <field name="len" pos="0" show="143" showname="Frame Length" value="8f" size="143"/>
    <field name="caplen" pos="0" show="143" showname="Captured Length" value="8f" size="143"/>
    <field name="timestamp" pos="0" show="Feb 22, 2019 22:23:02.188763000 EST" showname="Captured Time" value="1550892182.188763000" size="143"/>
  </proto>
  <proto name="frame" showname="Frame 7: 143 bytes on wire (1144 bits), 143 bytes captured (1144 bits)" size="143" pos="0">
    <field name="frame.encap_type" showname="Encapsulation type: Ethernet (1)" size="0" pos="0" show="1"/>
    <field name="frame.time" showname="Arrival Time: Feb 22, 2019 22:23:02.188763000 EST" size="0" pos="0" show="Feb 22, 2019 22:23:02.188763000 EST"/>
    <field name="frame.offset_shift" showname="Time shift for this packet: 0.000000000 seconds" size="0" pos="0" show="0.000000000"/>
    <field name="frame.time_epoch" showname="Epoch Time: 1550892182.188763000 seconds" size="0" pos="0" show="1550892182.188763000"/>
    <field name="frame.time_delta" showname="Time delta from previous captured frame: 0.444988000 seconds" size="0" pos="0" show="0.444988000"/>
    <field name="frame.time_delta_displayed" showname="Time delta from previous displayed frame: 0.444988000 seconds" size="0" pos="0" show="0.444988000"/>
    <field name="frame.time_relative" showname="Time since reference or first frame: 0.616580000 seconds" size="0" pos="0" show="0.616580000"/>
    <field name="frame.number" showname="Frame Number: 7" size="0" pos="0" show="7"/>
    <field name="frame.len" showname="Frame Length: 143 bytes (1144 bits)" size="0" pos="0" show="143"/>
    <field name="frame.cap_len" showname="Capture Length: 143 bytes (1144 bits)" size="0" pos="0" show="143"/>
    <field name="frame.marked" showname="Frame is marked: False" size="0" pos="0" show="0"/>
    <field name="frame.ignored" showname="Frame is ignored: False" size="0" pos="0" show="0"/>
    <field name="frame.protocols" showname="Protocols in frame: eth:ethertype:ip:udp:ssdp" size="0" pos="0" show="eth:ethertype:ip:udp:ssdp"/>
  </proto>
  <proto name="eth" showname="Ethernet II, Src: Tp-LinkT_19:de:6c (e8:de:27:19:de:6c), Dst: IPv4mcast_7f:ff:fa (01:00:5e:7f:ff:fa)" size="14" pos="0">
    <field name="eth.dst" showname="Destination: IPv4mcast_7f:ff:fa (01:00:5e:7f:ff:fa)" size="6" pos="0" show="01:00:5e:7f:ff:fa" value="01005e7ffffa">
      <field name="eth.dst_resolved" showname="Destination (resolved): IPv4mcast_7f:ff:fa" hide="yes" size="6" pos="0" show="IPv4mcast_7f:ff:fa" value="01005e7ffffa"/>
      <field name="eth.addr" showname="Address: IPv4mcast_7f:ff:fa (01:00:5e:7f:ff:fa)" size="6" pos="0" show="01:00:5e:7f:ff:fa" value="01005e7ffffa"/>
      <field name="eth.addr_resolved" showname="Address (resolved): IPv4mcast_7f:ff:fa" hide="yes" size="6" pos="0" show="IPv4mcast_7f:ff:fa" value="01005e7ffffa"/>
      <field name="eth.lg" showname=".... ..0. .... .... .... .... = LG bit: Globally unique address (factory default)" size="3" pos="0" show="0" value="0" unmaskedvalue="01005e"/>
      <field name="eth.ig" showname=".... ...1 .... .... .... .... = IG bit: Group address (multicast/broadcast)" size="3" pos="0" show="1" value="1" unmaskedvalue="01005e"/>
    </field>
    <field name="eth.src" showname="Source: Tp-LinkT_19:de:6c (e8:de:27:19:de:6c)" size="6" pos="6" show="e8:de:27:19:de:6c" value="e8de2719de6c">
      <field name="eth.src_resolved" showname="Source (resolved): Tp-LinkT_19:de:6c" hide="yes" size="6" pos="6" show="Tp-LinkT_19:de:6c" value="e8de2719de6c"/>
      <field name="eth.addr" showname="Address: Tp-LinkT_19:de:6c (e8:de:27:19:de:6c)" size="6" pos="6" show="e8:de:27:19:de:6c" value="e8de2719de6c"/>
      <field name="eth.addr_resolved" showname="Address (resolved): Tp-LinkT_19:de:6c" hide="yes" size="6" pos="6" show="Tp-LinkT_19:de:6c" value="e8de2719de6c"/>
      <field name="eth.lg" showname=".... ..0. .... .... .... .... = LG bit: Globally unique address (factory default)" size="3" pos="6" show="0" value="0" unmaskedvalue="e8de27"/>
      <field name="eth.ig" showname=".... ...0 .... .... .... .... = IG bit: Individual address (unicast)" size="3" pos="6" show="0" value="0" unmaskedvalue="e8de27"/>
    </field>
    <field name="eth.type" showname="Type: IPv4 (0x0800)" size="2" pos="12" show="0x00000800" value="0800"/>
  </proto>
  <proto name="ip" showname="Internet Protocol Version 4, Src: 192.168.86.246, Dst: 239.255.255.250" size="20" pos="14">
    <field name="ip.version" showname="0100 .... = Version: 4" size="1" pos="14" show="4" value="4" unmaskedvalue="45"/>
    <field name="ip.hdr_len" showname=".... 0101 = Header Length: 20 bytes (5)" size="1" pos="14" show="20" value="45"/>
    <field name="ip.dsfield" showname="Differentiated Services Field: 0x00 (DSCP: CS0, ECN: Not-ECT)" size="1" pos="15" show="0x00000000" value="00">
      <field name="ip.dsfield.dscp" showname="0000 00.. = Differentiated Services Codepoint: Default (0)" size="1" pos="15" show="0" value="0" unmaskedvalue="00"/>
      <field name="ip.dsfield.ecn" showname=".... ..00 = Explicit Congestion Notification: Not ECN-Capable Transport (0)" size="1" pos="15" show="0" value="0" unmaskedvalue="00"/>
    </field>
    <field name="ip.len" showname="Total Length: 129" size="2" pos="16" show="129" value="0081"/>
    <field name="ip.id" showname="Identification: 0x7935 (31029)" size="2" pos="18" show="0x00007935" value="7935"/>
    <field name="ip.flags" showname="Flags: 0x4000, Don&#x27;t fragment" size="2" pos="20" show="0x00004000" value="4000">
      <field name="ip.flags.rb" showname="0... .... .... .... = Reserved bit: Not set" size="2" pos="20" show="0" value="0" unmaskedvalue="4000"/>
      <field name="ip.flags.df" showname=".1.. .... .... .... = Don&#x27;t fragment: Set" size="2" pos="20" show="1" value="1" unmaskedvalue="4000"/>
      <field name="ip.flags.mf" showname="..0. .... .... .... = More fragments: Not set" size="2" pos="20" show="0" value="0" unmaskedvalue="4000"/>
      <field name="ip.frag_offset" showname="...0 0000 0000 0000 = Fragment offset: 0" size="2" pos="20" show="0" value="0" unmaskedvalue="4000"/>
    </field>
    <field name="ip.ttl" showname="Time to live: 1" size="1" pos="22" show="1" value="01"/>
    <field name="ip.proto" showname="Protocol: UDP (17)" size="1" pos="23" show="17" value="11"/>
    <field name="ip.checksum" showname="Header checksum: 0xf89d [correct]" size="2" pos="24" show="0x0000f89d" value="f89d"/>
    <field name="ip.checksum.status" showname="Header checksum status: Good" size="0" pos="24" show="1"/>
    <field name="ip.checksum_calculated" showname="Calculated Checksum: 0xf89d" size="2" pos="24" show="0x0000f89d" value="f89d"/>
    <field name="ip.src" showname="Source: 192.168.86.246" size="4" pos="26" show="192.168.86.246" value="c0a856f6"/>
    <field name="ip.addr" showname="Source or Destination Address: 192.168.86.246" hide="yes" size="4" pos="26" show="192.168.86.246" value="c0a856f6"/>
    <field name="ip.src_host" showname="Source Host: 192.168.86.246" hide="yes" size="4" pos="26" show="192.168.86.246" value="c0a856f6"/>
    <field name="ip.host" showname="Source or Destination Host: 192.168.86.246" hide="yes" size="4" pos="26" show="192.168.86.246" value="c0a856f6"/>
    <field name="ip.dst" showname="Destination: 239.255.255.250" size="4" pos="30" show="239.255.255.250" value="effffffa"/>
    <field name="ip.addr" showname="Source or Destination Address: 239.255.255.250" hide="yes" size="4" pos="30" show="239.255.255.250" value="effffffa"/>
    <field name="ip.dst_host" showname="Destination Host: 239.255.255.250" hide="yes" size="4" pos="30" show="239.255.255.250" value="effffffa"/>
    <field name="ip.host" showname="Source or Destination Host: 239.255.255.250" hide="yes" size="4" pos="30" show="239.255.255.250" value="effffffa"/>
  </proto>
  <proto name="udp" showname="User Datagram Protocol, Src Port: 49525, Dst Port: 1900" size="8" pos="34">
    <field name="udp.srcport" showname="Source Port: 49525" size="2" pos="34" show="49525" value="c175"/>
    <field name="udp.dstport" showname="Destination Port: 1900" size="2" pos="36" show="1900" value="076c"/>
    <field name="udp.port" showname="Source or Destination Port: 49525" hide="yes" size="2" pos="34" show="49525" value="c175"/>
    <field name="udp.port" showname="Source or Destination Port: 1900" hide="yes" size="2" pos="36" show="1900" value="076c"/>
    <field name="udp.length" showname="Length: 109" size="2" pos="38" show="109" value="006d"/>
    <field name="udp.checksum" showname="Checksum: 0x3b89 [correct]" size="2" pos="40" show="0x00003b89" value="3b89">
      <field name="udp.checksum_calculated" showname="Calculated Checksum: 0x3b89" size="2" pos="40" show="0x00003b89" value="3b89"/>
    </field>
    <field name="udp.checksum.status" showname="Checksum Status: Good" size="0" pos="40" show="1"/>
    <field name="udp.stream" showname="Stream index: 0" size="0" pos="42" show="0"/>
  </proto>
  <proto name="ssdp" showname="Simple Service Discovery Protocol" size="101" pos="42">
    <field name="" show="M-SEARCH * HTTP/1.1\r\n" size="21" pos="42" value="4d2d534541524348202a20485454502f312e310d0a">
      <field name="_ws.expert" showname="Expert Info (Chat/Sequence): M-SEARCH * HTTP/1.1\r\n" size="0" pos="42">
        <field name="http.chat" showname="M-SEARCH * HTTP/1.1\r\n" size="0" pos="0" show="" value=""/>
        <field name="_ws.expert.message" showname="Message: M-SEARCH * HTTP/1.1\r\n" hide="yes" size="0" pos="0" show="M-SEARCH * HTTP/1.1\r\n"/>
        <field name="_ws.expert.severity" showname="Severity level: Chat" size="0" pos="0" show="2097152"/>
        <field name="_ws.expert.group" showname="Group: Sequence" size="0" pos="0" show="33554432"/>
      </field>
      <field name="http.request.method" showname="Request Method: M-SEARCH" size="8" pos="42" show="M-SEARCH" value="4d2d534541524348"/>
      <field name="http.request.uri" showname="Request URI: *" size="1" pos="51" show="*" value="2a"/>
      <field name="http.request.version" showname="Request Version: HTTP/1.1" size="8" pos="53" show="HTTP/1.1" value="485454502f312e31"/>
    </field>
    <field name="http.host" showname="HOST: 239.255.255.250:1900\r\n" size="28" pos="63" show="239.255.255.250:1900" value="484f53543a203233392e3235352e3235352e3235303a313930300d0a"/>
    <field name="http.request.line" showname="HOST: 239.255.255.250:1900\r\n" hide="yes" size="28" pos="63" show="HOST: 239.255.255.250:1900\xd\xa" value="484f53543a203233392e3235352e3235352e3235303a313930300d0a"/>
    <field name="http.request.line" showname="MAN: &quot;ssdp:discover&quot;\r\n" size="22" pos="91" show="MAN: &quot;ssdp:discover&quot;\xd\xa" value="4d414e3a2022737364703a646973636f766572220d0a"/>
    <field name="http.request.line" showname="ST: upnp:rootdevice\r\n" size="21" pos="113" show="ST: upnp:rootdevice\xd\xa" value="53543a2075706e703a726f6f746465766963650d0a"/>
    <field name="http.request.line" showname="MX: 5\r\n" size="7" pos="134" show="MX: 5\xd\xa" value="4d583a20350d0a"/>
    <field name="" show="\r\n" size="2" pos="141" value="0d0a"/>
    <field name="http.request.full_uri" showname="Full request URI: http://239.255.255.250:1900*" size="0" pos="42" show="http://239.255.255.250:1900*"/>
    <field name="http.request" showname="Request: True" hide="yes" size="0" pos="42" show="1"/>
    <field name="http.request_number" showname="HTTP request 1/1" size="0" pos="42" show="1"/>
  </proto>
</packet>


<packet>
  <proto name="geninfo" pos="0" showname="General information" size="143">
    <field name="num" pos="0" show="8" showname="Number" value="8" size="143"/>
    <field name="len" pos="0" show="143" showname="Frame Length" value="8f" size="143"/>
    <field name="caplen" pos="0" show="143" showname="Captured Length" value="8f" size="143"/>
    <field name="timestamp" pos="0" show="Feb 22, 2019 22:23:02.231550000 EST" showname="Captured Time" value="1550892182.231550000" size="143"/>
  </proto>
  <proto name="frame" showname="Frame 8: 143 bytes on wire (1144 bits), 143 bytes captured (1144 bits)" size="143" pos="0">
    <field name="frame.encap_type" showname="Encapsulation type: Ethernet (1)" size="0" pos="0" show="1"/>
    <field name="frame.time" showname="Arrival Time: Feb 22, 2019 22:23:02.231550000 EST" size="0" pos="0" show="Feb 22, 2019 22:23:02.231550000 EST"/>
    <field name="frame.offset_shift" showname="Time shift for this packet: 0.000000000 seconds" size="0" pos="0" show="0.000000000"/>
    <field name="frame.time_epoch" showname="Epoch Time: 1550892182.231550000 seconds" size="0" pos="0" show="1550892182.231550000"/>
    <field name="frame.time_delta" showname="Time delta from previous captured frame: 0.042787000 seconds" size="0" pos="0" show="0.042787000"/>
    <field name="frame.time_delta_displayed" showname="Time delta from previous displayed frame: 0.042787000 seconds" size="0" pos="0" show="0.042787000"/>
    <field name="frame.time_relative" showname="Time since reference or first frame: 0.659367000 seconds" size="0" pos="0" show="0.659367000"/>
    <field name="frame.number" showname="Frame Number: 8" size="0" pos="0" show="8"/>
    <field name="frame.len" showname="Frame Length: 143 bytes (1144 bits)" size="0" pos="0" show="143"/>
    <field name="frame.cap_len" showname="Capture Length: 143 bytes (1144 bits)" size="0" pos="0" show="143"/>
    <field name="frame.marked" showname="Frame is marked: False" size="0" pos="0" show="0"/>
    <field name="frame.ignored" showname="Frame is ignored: False" size="0" pos="0" show="0"/>
    <field name="frame.protocols" showname="Protocols in frame: eth:ethertype:ip:udp:ssdp" size="0" pos="0" show="eth:ethertype:ip:udp:ssdp"/>
  </proto>
  <proto name="eth" showname="Ethernet II, Src: IntelCor_04:5c:7c (28:b2:bd:04:5c:7c), Dst: IPv4mcast_7f:ff:fa (01:00:5e:7f:ff:fa)" size="14" pos="0">
    <field name="eth.dst" showname="Destination: IPv4mcast_7f:ff:fa (01:00:5e:7f:ff:fa)" size="6" pos="0" show="01:00:5e:7f:ff:fa" value="01005e7ffffa">
      <field name="eth.dst_resolved" showname="Destination (resolved): IPv4mcast_7f:ff:fa" hide="yes" size="6" pos="0" show="IPv4mcast_7f:ff:fa" value="01005e7ffffa"/>
      <field name="eth.addr" showname="Address: IPv4mcast_7f:ff:fa (01:00:5e:7f:ff:fa)" size="6" pos="0" show="01:00:5e:7f:ff:fa" value="01005e7ffffa"/>
      <field name="eth.addr_resolved" showname="Address (resolved): IPv4mcast_7f:ff:fa" hide="yes" size="6" pos="0" show="IPv4mcast_7f:ff:fa" value="01005e7ffffa"/>
      <field name="eth.lg" showname=".... ..0. .... .... .... .... = LG bit: Globally unique address (factory default)" size="3" pos="0" show="0" value="0" unmaskedvalue="01005e"/>
      <field name="eth.ig" showname=".... ...1 .... .... .... .... = IG bit: Group address (multicast/broadcast)" size="3" pos="0" show="1" value="1" unmaskedvalue="01005e"/>
    </field>
    <field name="eth.src" showname="Source: IntelCor_04:5c:7c (28:b2:bd:04:5c:7c)" size="6" pos="6" show="28:b2:bd:04:5c:7c" value="28b2bd045c7c">
      <field name="eth.src_resolved" showname="Source (resolved): IntelCor_04:5c:7c" hide="yes" size="6" pos="6" show="IntelCor_04:5c:7c" value="28b2bd045c7c"/>
      <field name="eth.addr" showname="Address: IntelCor_04:5c:7c (28:b2:bd:04:5c:7c)" size="6" pos="6" show="28:b2:bd:04:5c:7c" value="28b2bd045c7c"/>
      <field name="eth.addr_resolved" showname="Address (resolved): IntelCor_04:5c:7c" hide="yes" size="6" pos="6" show="IntelCor_04:5c:7c" value="28b2bd045c7c"/>
      <field name="eth.lg" showname=".... ..0. .... .... .... .... = LG bit: Globally unique address (factory default)" size="3" pos="6" show="0" value="0" unmaskedvalue="28b2bd"/>
      <field name="eth.ig" showname=".... ...0 .... .... .... .... = IG bit: Individual address (unicast)" size="3" pos="6" show="0" value="0" unmaskedvalue="28b2bd"/>
    </field>
    <field name="eth.type" showname="Type: IPv4 (0x0800)" size="2" pos="12" show="0x00000800" value="0800"/>
  </proto>
  <proto name="ip" showname="Internet Protocol Version 4, Src: 192.168.86.75, Dst: 239.255.255.250" size="20" pos="14">
    <field name="ip.version" showname="0100 .... = Version: 4" size="1" pos="14" show="4" value="4" unmaskedvalue="45"/>
    <field name="ip.hdr_len" showname=".... 0101 = Header Length: 20 bytes (5)" size="1" pos="14" show="20" value="45"/>
    <field name="ip.dsfield" showname="Differentiated Services Field: 0x00 (DSCP: CS0, ECN: Not-ECT)" size="1" pos="15" show="0x00000000" value="00">
      <field name="ip.dsfield.dscp" showname="0000 00.. = Differentiated Services Codepoint: Default (0)" size="1" pos="15" show="0" value="0" unmaskedvalue="00"/>
      <field name="ip.dsfield.ecn" showname=".... ..00 = Explicit Congestion Notification: Not ECN-Capable Transport (0)" size="1" pos="15" show="0" value="0" unmaskedvalue="00"/>
    </field>
    <field name="ip.len" showname="Total Length: 129" size="2" pos="16" show="129" value="0081"/>
    <field name="ip.id" showname="Identification: 0xda35 (55861)" size="2" pos="18" show="0x0000da35" value="da35"/>
    <field name="ip.flags" showname="Flags: 0x4000, Don&#x27;t fragment" size="2" pos="20" show="0x00004000" value="4000">
      <field name="ip.flags.rb" showname="0... .... .... .... = Reserved bit: Not set" size="2" pos="20" show="0" value="0" unmaskedvalue="4000"/>
      <field name="ip.flags.df" showname=".1.. .... .... .... = Don&#x27;t fragment: Set" size="2" pos="20" show="1" value="1" unmaskedvalue="4000"/>
      <field name="ip.flags.mf" showname="..0. .... .... .... = More fragments: Not set" size="2" pos="20" show="0" value="0" unmaskedvalue="4000"/>
      <field name="ip.frag_offset" showname="...0 0000 0000 0000 = Fragment offset: 0" size="2" pos="20" show="0" value="0" unmaskedvalue="4000"/>
    </field>
    <field name="ip.ttl" showname="Time to live: 1" size="1" pos="22" show="1" value="01"/>
    <field name="ip.proto" showname="Protocol: UDP (17)" size="1" pos="23" show="17" value="11"/>
    <field name="ip.checksum" showname="Header checksum: 0x9848 [correct]" size="2" pos="24" show="0x00009848" value="9848"/>
    <field name="ip.checksum.status" showname="Header checksum status: Good" size="0" pos="24" show="1"/>
    <field name="ip.checksum_calculated" showname="Calculated Checksum: 0x9848" size="2" pos="24" show="0x00009848" value="9848"/>
    <field name="ip.src" showname="Source: 192.168.86.75" size="4" pos="26" show="192.168.86.75" value="c0a8564b"/>
    <field name="ip.addr" showname="Source or Destination Address: 192.168.86.75" hide="yes" size="4" pos="26" show="192.168.86.75" value="c0a8564b"/>
    <field name="ip.src_host" showname="Source Host: 192.168.86.75" hide="yes" size="4" pos="26" show="192.168.86.75" value="c0a8564b"/>
    <field name="ip.host" showname="Source or Destination Host: 192.168.86.75" hide="yes" size="4" pos="26" show="192.168.86.75" value="c0a8564b"/>
    <field name="ip.dst" showname="Destination: 239.255.255.250" size="4" pos="30" show="239.255.255.250" value="effffffa"/>
    <field name="ip.addr" showname="Source or Destination Address: 239.255.255.250" hide="yes" size="4" pos="30" show="239.255.255.250" value="effffffa"/>
    <field name="ip.dst_host" showname="Destination Host: 239.255.255.250" hide="yes" size="4" pos="30" show="239.255.255.250" value="effffffa"/>
    <field name="ip.host" showname="Source or Destination Host: 239.255.255.250" hide="yes" size="4" pos="30" show="239.255.255.250" value="effffffa"/>
  </proto>
  <proto name="udp" showname="User Datagram Protocol, Src Port: 57097, Dst Port: 1900" size="8" pos="34">
    <field name="udp.srcport" showname="Source Port: 57097" size="2" pos="34" show="57097" value="df09"/>
    <field name="udp.dstport" showname="Destination Port: 1900" size="2" pos="36" show="1900" value="076c"/>
    <field name="udp.port" showname="Source or Destination Port: 57097" hide="yes" size="2" pos="34" show="57097" value="df09"/>
    <field name="udp.port" showname="Source or Destination Port: 1900" hide="yes" size="2" pos="36" show="1900" value="076c"/>
    <field name="udp.length" showname="Length: 109" size="2" pos="38" show="109" value="006d"/>
    <field name="udp.checksum" showname="Checksum: 0x1ea0 [correct]" size="2" pos="40" show="0x00001ea0" value="1ea0">
      <field name="udp.checksum_calculated" showname="Calculated Checksum: 0x1ea0" size="2" pos="40" show="0x00001ea0" value="1ea0"/>
    </field>
    <field name="udp.checksum.status" showname="Checksum Status: Good" size="0" pos="40" show="1"/>
    <field name="udp.stream" showname="Stream index: 1" size="0" pos="42" show="1"/>
  </proto>
  <proto name="ssdp" showname="Simple Service Discovery Protocol" size="101" pos="42">
    <field name="" show="M-SEARCH * HTTP/1.1\r\n" size="21" pos="42" value="4d2d534541524348202a20485454502f312e310d0a">
      <field name="_ws.expert" showname="Expert Info (Chat/Sequence): M-SEARCH * HTTP/1.1\r\n" size="0" pos="42">
        <field name="http.chat" showname="M-SEARCH * HTTP/1.1\r\n" size="0" pos="0" show="" value=""/>
        <field name="_ws.expert.message" showname="Message: M-SEARCH * HTTP/1.1\r\n" hide="yes" size="0" pos="0" show="M-SEARCH * HTTP/1.1\r\n"/>
        <field name="_ws.expert.severity" showname="Severity level: Chat" size="0" pos="0" show="2097152"/>
        <field name="_ws.expert.group" showname="Group: Sequence" size="0" pos="0" show="33554432"/>
      </field>
      <field name="http.request.method" showname="Request Method: M-SEARCH" size="8" pos="42" show="M-SEARCH" value="4d2d534541524348"/>
      <field name="http.request.uri" showname="Request URI: *" size="1" pos="51" show="*" value="2a"/>
      <field name="http.request.version" showname="Request Version: HTTP/1.1" size="8" pos="53" show="HTTP/1.1" value="485454502f312e31"/>
    </field>
    <field name="http.host" showname="HOST: 239.255.255.250:1900\r\n" size="28" pos="63" show="239.255.255.250:1900" value="484f53543a203233392e3235352e3235352e3235303a313930300d0a"/>
    <field name="http.request.line" showname="HOST: 239.255.255.250:1900\r\n" hide="yes" size="28" pos="63" show="HOST: 239.255.255.250:1900\xd\xa" value="484f53543a203233392e3235352e3235352e3235303a313930300d0a"/>
    <field name="http.request.line" showname="MAN: &quot;ssdp:discover&quot;\r\n" size="22" pos="91" show="MAN: &quot;ssdp:discover&quot;\xd\xa" value="4d414e3a2022737364703a646973636f766572220d0a"/>
    <field name="http.request.line" showname="ST: upnp:rootdevice\r\n" size="21" pos="113" show="ST: upnp:rootdevice\xd\xa" value="53543a2075706e703a726f6f746465766963650d0a"/>
    <field name="http.request.line" showname="MX: 5\r\n" size="7" pos="134" show="MX: 5\xd\xa" value="4d583a20350d0a"/>
    <field name="" show="\r\n" size="2" pos="141" value="0d0a"/>
    <field name="http.request.full_uri" showname="Full request URI: http://239.255.255.250:1900*" size="0" pos="42" show="http://239.255.255.250:1900*"/>
    <field name="http.request" showname="Request: True" hide="yes" size="0" pos="42" show="1"/>
    <field name="http.request_number" showname="HTTP request 1/1" size="0" pos="42" show="1"/>
  </proto>
</packet>


<packet>
  <proto name="geninfo" pos="0" showname="General information" size="100">
    <field name="num" pos="0" show="9" showname="Number" value="9" size="100"/>
    <field name="len" pos="0" show="100" showname="Frame Length" value="64" size="100"/>
    <field name="caplen" pos="0" show="100" showname="Captured Length" value="64" size="100"/>
    <field name="timestamp" pos="0" show="Feb 22, 2019 22:23:02.239175000 EST" showname="Captured Time" value="1550892182.239175000" size="100"/>
  </proto>
  <proto name="frame" showname="Frame 9: 100 bytes on wire (800 bits), 100 bytes captured (800 bits)" size="100" pos="0">
    <field name="frame.encap_type" showname="Encapsulation type: Ethernet (1)" size="0" pos="0" show="1"/>
    <field name="frame.time" showname="Arrival Time: Feb 22, 2019 22:23:02.239175000 EST" size="0" pos="0" show="Feb 22, 2019 22:23:02.239175000 EST"/>
    <field name="frame.offset_shift" showname="Time shift for this packet: 0.000000000 seconds" size="0" pos="0" show="0.000000000"/>
    <field name="frame.time_epoch" showname="Epoch Time: 1550892182.239175000 seconds" size="0" pos="0" show="1550892182.239175000"/>
    <field name="frame.time_delta" showname="Time delta from previous captured frame: 0.007625000 seconds" size="0" pos="0" show="0.007625000"/>
    <field name="frame.time_delta_displayed" showname="Time delta from previous displayed frame: 0.007625000 seconds" size="0" pos="0" show="0.007625000"/>
    <field name="frame.time_relative" showname="Time since reference or first frame: 0.666992000 seconds" size="0" pos="0" show="0.666992000"/>
    <field name="frame.number" showname="Frame Number: 9" size="0" pos="0" show="9"/>
    <field name="frame.len" showname="Frame Length: 100 bytes (800 bits)" size="0" pos="0" show="100"/>
    <field name="frame.cap_len" showname="Capture Length: 100 bytes (800 bits)" size="0" pos="0" show="100"/>
    <field name="frame.marked" showname="Frame is marked: False" size="0" pos="0" show="0"/>
    <field name="frame.ignored" showname="Frame is ignored: False" size="0" pos="0" show="0"/>
    <field name="frame.protocols" showname="Protocols in frame: eth:ethertype:ip:tcp:ssl" size="0" pos="0" show="eth:ethertype:ip:tcp:ssl"/>
  </proto>
  <proto name="eth" showname="Ethernet II, Src: Google_d2:76:12 (30:fd:38:d2:76:12), Dst: Tp-LinkT_19:de:6c (e8:de:27:19:de:6c)" size="14" pos="0">
    <field name="eth.dst" showname="Destination: Tp-LinkT_19:de:6c (e8:de:27:19:de:6c)" size="6" pos="0" show="e8:de:27:19:de:6c" value="e8de2719de6c">
      <field name="eth.dst_resolved" showname="Destination (resolved): Tp-LinkT_19:de:6c" hide="yes" size="6" pos="0" show="Tp-LinkT_19:de:6c" value="e8de2719de6c"/>
      <field name="eth.addr" showname="Address: Tp-LinkT_19:de:6c (e8:de:27:19:de:6c)" size="6" pos="0" show="e8:de:27:19:de:6c" value="e8de2719de6c"/>
      <field name="eth.addr_resolved" showname="Address (resolved): Tp-LinkT_19:de:6c" hide="yes" size="6" pos="0" show="Tp-LinkT_19:de:6c" value="e8de2719de6c"/>
      <field name="eth.lg" showname=".... ..0. .... .... .... .... = LG bit: Globally unique address (factory default)" size="3" pos="0" show="0" value="0" unmaskedvalue="e8de27"/>
      <field name="eth.ig" showname=".... ...0 .... .... .... .... = IG bit: Individual address (unicast)" size="3" pos="0" show="0" value="0" unmaskedvalue="e8de27"/>
    </field>
    <field name="eth.src" showname="Source: Google_d2:76:12 (30:fd:38:d2:76:12)" size="6" pos="6" show="30:fd:38:d2:76:12" value="30fd38d27612">
      <field name="eth.src_resolved" showname="Source (resolved): Google_d2:76:12" hide="yes" size="6" pos="6" show="Google_d2:76:12" value="30fd38d27612"/>
      <field name="eth.addr" showname="Address: Google_d2:76:12 (30:fd:38:d2:76:12)" size="6" pos="6" show="30:fd:38:d2:76:12" value="30fd38d27612"/>
      <field name="eth.addr_resolved" showname="Address (resolved): Google_d2:76:12" hide="yes" size="6" pos="6" show="Google_d2:76:12" value="30fd38d27612"/>
      <field name="eth.lg" showname=".... ..0. .... .... .... .... = LG bit: Globally unique address (factory default)" size="3" pos="6" show="0" value="0" unmaskedvalue="30fd38"/>
      <field name="eth.ig" showname=".... ...0 .... .... .... .... = IG bit: Individual address (unicast)" size="3" pos="6" show="0" value="0" unmaskedvalue="30fd38"/>
    </field>
    <field name="eth.type" showname="Type: IPv4 (0x0800)" size="2" pos="12" show="0x00000800" value="0800"/>
  </proto>
  <proto name="ip" showname="Internet Protocol Version 4, Src: 172.104.218.101, Dst: 192.168.86.246" size="20" pos="14">
    <field name="ip.version" showname="0100 .... = Version: 4" size="1" pos="14" show="4" value="4" unmaskedvalue="45"/>
    <field name="ip.hdr_len" showname=".... 0101 = Header Length: 20 bytes (5)" size="1" pos="14" show="20" value="45"/>
    <field name="ip.dsfield" showname="Differentiated Services Field: 0x00 (DSCP: CS0, ECN: Not-ECT)" size="1" pos="15" show="0x00000000" value="00">
      <field name="ip.dsfield.dscp" showname="0000 00.. = Differentiated Services Codepoint: Default (0)" size="1" pos="15" show="0" value="0" unmaskedvalue="00"/>
      <field name="ip.dsfield.ecn" showname=".... ..00 = Explicit Congestion Notification: Not ECN-Capable Transport (0)" size="1" pos="15" show="0" value="0" unmaskedvalue="00"/>
    </field>
    <field name="ip.len" showname="Total Length: 86" size="2" pos="16" show="86" value="0056"/>
    <field name="ip.id" showname="Identification: 0xf43b (62523)" size="2" pos="18" show="0x0000f43b" value="f43b"/>
    <field name="ip.flags" showname="Flags: 0x4000, Don&#x27;t fragment" size="2" pos="20" show="0x00004000" value="4000">
      <field name="ip.flags.rb" showname="0... .... .... .... = Reserved bit: Not set" size="2" pos="20" show="0" value="0" unmaskedvalue="4000"/>
      <field name="ip.flags.df" showname=".1.. .... .... .... = Don&#x27;t fragment: Set" size="2" pos="20" show="1" value="1" unmaskedvalue="4000"/>
      <field name="ip.flags.mf" showname="..0. .... .... .... = More fragments: Not set" size="2" pos="20" show="0" value="0" unmaskedvalue="4000"/>
      <field name="ip.frag_offset" showname="...0 0000 0000 0000 = Fragment offset: 0" size="2" pos="20" show="0" value="0" unmaskedvalue="4000"/>
    </field>
    <field name="ip.ttl" showname="Time to live: 56" size="1" pos="22" show="56" value="38"/>
    <field name="ip.proto" showname="Protocol: TCP (6)" size="1" pos="23" show="6" value="06"/>
    <field name="ip.checksum" showname="Header checksum: 0xaff9 [correct]" size="2" pos="24" show="0x0000aff9" value="aff9"/>
    <field name="ip.checksum.status" showname="Header checksum status: Good" size="0" pos="24" show="1"/>
    <field name="ip.checksum_calculated" showname="Calculated Checksum: 0xaff9" size="2" pos="24" show="0x0000aff9" value="aff9"/>
    <field name="ip.src" showname="Source: 172.104.218.101" size="4" pos="26" show="172.104.218.101" value="ac68da65"/>
    <field name="ip.addr" showname="Source or Destination Address: 172.104.218.101" hide="yes" size="4" pos="26" show="172.104.218.101" value="ac68da65"/>
    <field name="ip.src_host" showname="Source Host: 172.104.218.101" hide="yes" size="4" pos="26" show="172.104.218.101" value="ac68da65"/>
    <field name="ip.host" showname="Source or Destination Host: 172.104.218.101" hide="yes" size="4" pos="26" show="172.104.218.101" value="ac68da65"/>
    <field name="ip.dst" showname="Destination: 192.168.86.246" size="4" pos="30" show="192.168.86.246" value="c0a856f6"/>
    <field name="ip.addr" showname="Source or Destination Address: 192.168.86.246" hide="yes" size="4" pos="30" show="192.168.86.246" value="c0a856f6"/>
    <field name="ip.dst_host" showname="Destination Host: 192.168.86.246" hide="yes" size="4" pos="30" show="192.168.86.246" value="c0a856f6"/>
    <field name="ip.host" showname="Source or Destination Host: 192.168.86.246" hide="yes" size="4" pos="30" show="192.168.86.246" value="c0a856f6"/>
  </proto>
  <proto name="tcp" showname="Transmission Control Protocol, Src Port: 443, Dst Port: 44504, Seq: 1, Ack: 1, Len: 34" size="32" pos="34">
    <field name="tcp.srcport" showname="Source Port: 443" size="2" pos="34" show="443" value="01bb"/>
    <field name="tcp.dstport" showname="Destination Port: 44504" size="2" pos="36" show="44504" value="add8"/>
    <field name="tcp.port" showname="Source or Destination Port: 443" hide="yes" size="2" pos="34" show="443" value="01bb"/>
    <field name="tcp.port" showname="Source or Destination Port: 44504" hide="yes" size="2" pos="36" show="44504" value="add8"/>
    <field name="tcp.stream" showname="Stream index: 2" size="0" pos="34" show="2"/>
    <field name="tcp.len" showname="TCP Segment Len: 34" size="1" pos="46" show="34" value="80"/>
    <field name="tcp.seq" showname="Sequence number: 1    (relative sequence number)" size="4" pos="38" show="1" value="1245094e"/>
    <field name="tcp.nxtseq" showname="Next sequence number: 35    (relative sequence number)" size="0" pos="34" show="35"/>
    <field name="tcp.ack" showname="Acknowledgment number: 1    (relative ack number)" size="4" pos="42" show="1" value="493076b2"/>
    <field name="tcp.hdr_len" showname="1000 .... = Header Length: 32 bytes (8)" size="1" pos="46" show="32" value="80"/>
    <field name="tcp.flags" showname="Flags: 0x018 (PSH, ACK)" size="2" pos="46" show="0x00000018" value="18" unmaskedvalue="8018">
      <field name="tcp.flags.res" showname="000. .... .... = Reserved: Not set" size="1" pos="46" show="0" value="0" unmaskedvalue="80"/>
      <field name="tcp.flags.ns" showname="...0 .... .... = Nonce: Not set" size="1" pos="46" show="0" value="0" unmaskedvalue="80"/>
      <field name="tcp.flags.cwr" showname=".... 0... .... = Congestion Window Reduced (CWR): Not set" size="1" pos="47" show="0" value="0" unmaskedvalue="18"/>
      <field name="tcp.flags.ecn" showname=".... .0.. .... = ECN-Echo: Not set" size="1" pos="47" show="0" value="0" unmaskedvalue="18"/>
      <field name="tcp.flags.urg" showname=".... ..0. .... = Urgent: Not set" size="1" pos="47" show="0" value="0" unmaskedvalue="18"/>
      <field name="tcp.flags.ack" showname=".... ...1 .... = Acknowledgment: Set" size="1" pos="47" show="1" value="1" unmaskedvalue="18"/>
      <field name="tcp.flags.push" showname=".... .... 1... = Push: Set" size="1" pos="47" show="1" value="1" unmaskedvalue="18"/>
      <field name="tcp.flags.reset" showname=".... .... .0.. = Reset: Not set" size="1" pos="47" show="0" value="0" unmaskedvalue="18"/>
      <field name="tcp.flags.syn" showname=".... .... ..0. = Syn: Not set" size="1" pos="47" show="0" value="0" unmaskedvalue="18"/>
      <field name="tcp.flags.fin" showname=".... .... ...0 = Fin: Not set" size="1" pos="47" show="0" value="0" unmaskedvalue="18"/>
      <field name="tcp.flags.str" showname="TCP Flags: \xc2\xb7\xc2\xb7\xc2\xb7\xc2\xb7\xc2\xb7\xc2\xb7\xc2\xb7AP\xc2\xb7\xc2\xb7\xc2\xb7" size="2" pos="46" show="\xc2\xb7\xc2\xb7\xc2\xb7\xc2\xb7\xc2\xb7\xc2\xb7\xc2\xb7AP\xc2\xb7\xc2\xb7\xc2\xb7" value="8018"/>
    </field>
    <field name="tcp.window_size_value" showname="Window size value: 19" size="2" pos="48" show="19" value="0013"/>
    <field name="tcp.window_size" showname="Calculated window size: 19" size="2" pos="48" show="19" value="0013"/>
    <field name="tcp.window_size_scalefactor" showname="Window size scaling factor: -1 (unknown)" size="2" pos="48" show="-1" value="0013"/>
    <field name="tcp.checksum" showname="Checksum: 0xc919 [unverified]" size="2" pos="50" show="0x0000c919" value="c919"/>
    <field name="tcp.checksum.status" showname="Checksum Status: Unverified" size="0" pos="50" show="2"/>
    <field name="tcp.urgent_pointer" showname="Urgent pointer: 0" size="2" pos="52" show="0" value="0000"/>
    <field name="tcp.options" showname="Options: (12 bytes), No-Operation (NOP), No-Operation (NOP), Timestamps" size="12" pos="54" show="01:01:08:0a:8b:c9:4b:15:4e:a9:85:74" value="0101080a8bc94b154ea98574">
      <field name="tcp.options.nop" showname="TCP Option - No-Operation (NOP)" size="1" pos="54" show="01" value="01">
        <field name="tcp.option_kind" showname="Kind: No-Operation (1)" size="1" pos="54" show="1" value="01"/>
      </field>
      <field name="tcp.options.nop" showname="TCP Option - No-Operation (NOP)" size="1" pos="55" show="01" value="01">
        <field name="tcp.option_kind" showname="Kind: No-Operation (1)" size="1" pos="55" show="1" value="01"/>
      </field>
      <field name="tcp.options.timestamp" showname="TCP Option - Timestamps: TSval 2345224981, TSecr 1319732596" size="10" pos="56" show="08:0a:8b:c9:4b:15:4e:a9:85:74" value="080a8bc94b154ea98574">
        <field name="tcp.option_kind" showname="Kind: Time Stamp Option (8)" size="1" pos="56" show="8" value="08"/>
        <field name="tcp.option_len" showname="Length: 10" size="1" pos="57" show="10" value="0a"/>
        <field name="tcp.options.timestamp.tsval" showname="Timestamp value: 2345224981" size="4" pos="58" show="2345224981" value="8bc94b15"/>
        <field name="tcp.options.timestamp.tsecr" showname="Timestamp echo reply: 1319732596" size="4" pos="62" show="1319732596" value="4ea98574"/>
      </field>
    </field>
    <field name="tcp.analysis" showname="SEQ/ACK analysis" size="0" pos="34" show="" value="">
      <field name="tcp.analysis.bytes_in_flight" showname="Bytes in flight: 34" size="0" pos="34" show="34"/>
      <field name="tcp.analysis.push_bytes_sent" showname="Bytes sent since last PSH flag: 34" size="0" pos="34" show="34"/>
    </field>
    <field name="" show="Timestamps" size="0" pos="34">
      <field name="tcp.time_relative" showname="Time since first frame in this TCP stream: 0.000000000 seconds" size="0" pos="34" show="0.000000000"/>
      <field name="tcp.time_delta" showname="Time since previous frame in this TCP stream: 0.000000000 seconds" size="0" pos="34" show="0.000000000"/>
    </field>
    <field name="tcp.payload" showname="TCP payload (34 bytes)" size="34" pos="66" show="17:03:03:00:1d:3a:ab:21:78:55:55:d8:97:dc:87:fd:4d:a6:5d:bf:4e:cd:3b:67:dc:44:eb:b5:93:a2:cc:d4:aa:80" value="170303001d3aab21785555d897dc87fd4da65dbf4ecd3b67dc44ebb593a2ccd4aa80"/>
  </proto>
  <proto name="ssl" showname="Secure Sockets Layer" size="34" pos="66">
    <field name="ssl.record" showname="TLSv1.2 Record Layer: Application Data Protocol: http-over-tls" size="34" pos="66" show="" value="">
      <field name="ssl.record.content_type" showname="Content Type: Application Data (23)" size="1" pos="66" show="23" value="17"/>
      <field name="ssl.record.version" showname="Version: TLS 1.2 (0x0303)" size="2" pos="67" show="0x00000303" value="0303"/>
      <field name="ssl.record.length" showname="Length: 29" size="2" pos="69" show="29" value="001d"/>
      <field name="ssl.app_data" showname="Encrypted Application Data: 3aab21785555d897dc87fd4da65dbf4ecd3b67dc44ebb593..." size="29" pos="71" show="3a:ab:21:78:55:55:d8:97:dc:87:fd:4d:a6:5d:bf:4e:cd:3b:67:dc:44:eb:b5:93:a2:cc:d4:aa:80" value="3aab21785555d897dc87fd4da65dbf4ecd3b67dc44ebb593a2ccd4aa80"/>
    </field>
  </proto>
</packet>


<packet>
  <proto name="geninfo" pos="0" showname="General information" size="66">
    <field name="num" pos="0" show="10" showname="Number" value="a" size="66"/>
    <field name="len" pos="0" show="66" showname="Frame Length" value="42" size="66"/>
    <field name="caplen" pos="0" show="66" showname="Captured Length" value="42" size="66"/>
    <field name="timestamp" pos="0" show="Feb 22, 2019 22:23:02.239206000 EST" showname="Captured Time" value="1550892182.239206000" size="66"/>
  </proto>
  <proto name="frame" showname="Frame 10: 66 bytes on wire (528 bits), 66 bytes captured (528 bits)" size="66" pos="0">
    <field name="frame.encap_type" showname="Encapsulation type: Ethernet (1)" size="0" pos="0" show="1"/>
    <field name="frame.time" showname="Arrival Time: Feb 22, 2019 22:23:02.239206000 EST" size="0" pos="0" show="Feb 22, 2019 22:23:02.239206000 EST"/>
    <field name="frame.offset_shift" showname="Time shift for this packet: 0.000000000 seconds" size="0" pos="0" show="0.000000000"/>
    <field name="frame.time_epoch" showname="Epoch Time: 1550892182.239206000 seconds" size="0" pos="0" show="1550892182.239206000"/>
    <field name="frame.time_delta" showname="Time delta from previous captured frame: 0.000031000 seconds" size="0" pos="0" show="0.000031000"/>
    <field name="frame.time_delta_displayed" showname="Time delta from previous displayed frame: 0.000031000 seconds" size="0" pos="0" show="0.000031000"/>
    <field name="frame.time_relative" showname="Time since reference or first frame: 0.667023000 seconds" size="0" pos="0" show="0.667023000"/>
    <field name="frame.number" showname="Frame Number: 10" size="0" pos="0" show="10"/>
    <field name="frame.len" showname="Frame Length: 66 bytes (528 bits)" size="0" pos="0" show="66"/>
    <field name="frame.cap_len" showname="Capture Length: 66 bytes (528 bits)" size="0" pos="0" show="66"/>
    <field name="frame.marked" showname="Frame is marked: False" size="0" pos="0" show="0"/>
    <field name="frame.ignored" showname="Frame is ignored: False" size="0" pos="0" show="0"/>
    <field name="frame.protocols" showname="Protocols in frame: eth:ethertype:ip:tcp" size="0" pos="0" show="eth:ethertype:ip:tcp"/>
  </proto>
  <proto name="eth" showname="Ethernet II, Src: Tp-LinkT_19:de:6c (e8:de:27:19:de:6c), Dst: Google_d2:76:12 (30:fd:38:d2:76:12)" size="14" pos="0">
    <field name="eth.dst" showname="Destination: Google_d2:76:12 (30:fd:38:d2:76:12)" size="6" pos="0" show="30:fd:38:d2:76:12" value="30fd38d27612">
      <field name="eth.dst_resolved" showname="Destination (resolved): Google_d2:76:12" hide="yes" size="6" pos="0" show="Google_d2:76:12" value="30fd38d27612"/>
      <field name="eth.addr" showname="Address: Google_d2:76:12 (30:fd:38:d2:76:12)" size="6" pos="0" show="30:fd:38:d2:76:12" value="30fd38d27612"/>
      <field name="eth.addr_resolved" showname="Address (resolved): Google_d2:76:12" hide="yes" size="6" pos="0" show="Google_d2:76:12" value="30fd38d27612"/>
      <field name="eth.lg" showname=".... ..0. .... .... .... .... = LG bit: Globally unique address (factory default)" size="3" pos="0" show="0" value="0" unmaskedvalue="30fd38"/>
      <field name="eth.ig" showname=".... ...0 .... .... .... .... = IG bit: Individual address (unicast)" size="3" pos="0" show="0" value="0" unmaskedvalue="30fd38"/>
    </field>
    <field name="eth.src" showname="Source: Tp-LinkT_19:de:6c (e8:de:27:19:de:6c)" size="6" pos="6" show="e8:de:27:19:de:6c" value="e8de2719de6c">
      <field name="eth.src_resolved" showname="Source (resolved): Tp-LinkT_19:de:6c" hide="yes" size="6" pos="6" show="Tp-LinkT_19:de:6c" value="e8de2719de6c"/>
      <field name="eth.addr" showname="Address: Tp-LinkT_19:de:6c (e8:de:27:19:de:6c)" size="6" pos="6" show="e8:de:27:19:de:6c" value="e8de2719de6c"/>
      <field name="eth.addr_resolved" showname="Address (resolved): Tp-LinkT_19:de:6c" hide="yes" size="6" pos="6" show="Tp-LinkT_19:de:6c" value="e8de2719de6c"/>
      <field name="eth.lg" showname=".... ..0. .... .... .... .... = LG bit: Globally unique address (factory default)" size="3" pos="6" show="0" value="0" unmaskedvalue="e8de27"/>
      <field name="eth.ig" showname=".... ...0 .... .... .... .... = IG bit: Individual address (unicast)" size="3" pos="6" show="0" value="0" unmaskedvalue="e8de27"/>
    </field>
    <field name="eth.type" showname="Type: IPv4 (0x0800)" size="2" pos="12" show="0x00000800" value="0800"/>
  </proto>
  <proto name="ip" showname="Internet Protocol Version 4, Src: 192.168.86.246, Dst: 172.104.218.101" size="20" pos="14">
    <field name="ip.version" showname="0100 .... = Version: 4" size="1" pos="14" show="4" value="4" unmaskedvalue="45"/>
    <field name="ip.hdr_len" showname=".... 0101 = Header Length: 20 bytes (5)" size="1" pos="14" show="20" value="45"/>
    <field name="ip.dsfield" showname="Differentiated Services Field: 0x00 (DSCP: CS0, ECN: Not-ECT)" size="1" pos="15" show="0x00000000" value="00">
      <field name="ip.dsfield.dscp" showname="0000 00.. = Differentiated Services Codepoint: Default (0)" size="1" pos="15" show="0" value="0" unmaskedvalue="00"/>
      <field name="ip.dsfield.ecn" showname=".... ..00 = Explicit Congestion Notification: Not ECN-Capable Transport (0)" size="1" pos="15" show="0" value="0" unmaskedvalue="00"/>
    </field>
    <field name="ip.len" showname="Total Length: 52" size="2" pos="16" show="52" value="0034"/>
    <field name="ip.id" showname="Identification: 0x09f6 (2550)" size="2" pos="18" show="0x000009f6" value="09f6"/>
    <field name="ip.flags" showname="Flags: 0x4000, Don&#x27;t fragment" size="2" pos="20" show="0x00004000" value="4000">
      <field name="ip.flags.rb" showname="0... .... .... .... = Reserved bit: Not set" size="2" pos="20" show="0" value="0" unmaskedvalue="4000"/>
      <field name="ip.flags.df" showname=".1.. .... .... .... = Don&#x27;t fragment: Set" size="2" pos="20" show="1" value="1" unmaskedvalue="4000"/>
      <field name="ip.flags.mf" showname="..0. .... .... .... = More fragments: Not set" size="2" pos="20" show="0" value="0" unmaskedvalue="4000"/>
      <field name="ip.frag_offset" showname="...0 0000 0000 0000 = Fragment offset: 0" size="2" pos="20" show="0" value="0" unmaskedvalue="4000"/>
    </field>
    <field name="ip.ttl" showname="Time to live: 64" size="1" pos="22" show="64" value="40"/>
    <field name="ip.proto" showname="Protocol: TCP (6)" size="1" pos="23" show="6" value="06"/>
    <field name="ip.checksum" showname="Header checksum: 0x9261 [correct]" size="2" pos="24" show="0x00009261" value="9261"/>
    <field name="ip.checksum.status" showname="Header checksum status: Good" size="0" pos="24" show="1"/>
    <field name="ip.checksum_calculated" showname="Calculated Checksum: 0x9261" size="2" pos="24" show="0x00009261" value="9261"/>
    <field name="ip.src" showname="Source: 192.168.86.246" size="4" pos="26" show="192.168.86.246" value="c0a856f6"/>
    <field name="ip.addr" showname="Source or Destination Address: 192.168.86.246" hide="yes" size="4" pos="26" show="192.168.86.246" value="c0a856f6"/>
    <field name="ip.src_host" showname="Source Host: 192.168.86.246" hide="yes" size="4" pos="26" show="192.168.86.246" value="c0a856f6"/>
    <field name="ip.host" showname="Source or Destination Host: 192.168.86.246" hide="yes" size="4" pos="26" show="192.168.86.246" value="c0a856f6"/>
    <field name="ip.dst" showname="Destination: 172.104.218.101" size="4" pos="30" show="172.104.218.101" value="ac68da65"/>
    <field name="ip.addr" showname="Source or Destination Address: 172.104.218.101" hide="yes" size="4" pos="30" show="172.104.218.101" value="ac68da65"/>
    <field name="ip.dst_host" showname="Destination Host: 172.104.218.101" hide="yes" size="4" pos="30" show="172.104.218.101" value="ac68da65"/>
    <field name="ip.host" showname="Source or Destination Host: 172.104.218.101" hide="yes" size="4" pos="30" show="172.104.218.101" value="ac68da65"/>
  </proto>
  <proto name="tcp" showname="Transmission Control Protocol, Src Port: 44504, Dst Port: 443, Seq: 1, Ack: 35, Len: 0" size="32" pos="34">
    <field name="tcp.srcport" showname="Source Port: 44504" size="2" pos="34" show="44504" value="add8"/>
    <field name="tcp.dstport" showname="Destination Port: 443" size="2" pos="36" show="443" value="01bb"/>
    <field name="tcp.port" showname="Source or Destination Port: 44504" hide="yes" size="2" pos="34" show="44504" value="add8"/>
    <field name="tcp.port" showname="Source or Destination Port: 443" hide="yes" size="2" pos="36" show="443" value="01bb"/>
    <field name="tcp.stream" showname="Stream index: 2" size="0" pos="34" show="2"/>
    <field name="tcp.len" showname="TCP Segment Len: 0" size="1" pos="46" show="0" value="80"/>
    <field name="tcp.seq" showname="Sequence number: 1    (relative sequence number)" size="4" pos="38" show="1" value="493076b2"/>
    <field name="tcp.nxtseq" showname="Next sequence number: 1    (relative sequence number)" size="0" pos="34" show="1"/>
    <field name="tcp.ack" showname="Acknowledgment number: 35    (relative ack number)" size="4" pos="42" show="35" value="12450970"/>
    <field name="tcp.hdr_len" showname="1000 .... = Header Length: 32 bytes (8)" size="1" pos="46" show="32" value="80"/>
    <field name="tcp.flags" showname="Flags: 0x010 (ACK)" size="2" pos="46" show="0x00000010" value="10" unmaskedvalue="8010">
      <field name="tcp.flags.res" showname="000. .... .... = Reserved: Not set" size="1" pos="46" show="0" value="0" unmaskedvalue="80"/>
      <field name="tcp.flags.ns" showname="...0 .... .... = Nonce: Not set" size="1" pos="46" show="0" value="0" unmaskedvalue="80"/>
      <field name="tcp.flags.cwr" showname=".... 0... .... = Congestion Window Reduced (CWR): Not set" size="1" pos="47" show="0" value="0" unmaskedvalue="10"/>
      <field name="tcp.flags.ecn" showname=".... .0.. .... = ECN-Echo: Not set" size="1" pos="47" show="0" value="0" unmaskedvalue="10"/>
      <field name="tcp.flags.urg" showname=".... ..0. .... = Urgent: Not set" size="1" pos="47" show="0" value="0" unmaskedvalue="10"/>
      <field name="tcp.flags.ack" showname=".... ...1 .... = Acknowledgment: Set" size="1" pos="47" show="1" value="1" unmaskedvalue="10"/>
      <field name="tcp.flags.push" showname=".... .... 0... = Push: Not set" size="1" pos="47" show="0" value="0" unmaskedvalue="10"/>
      <field name="tcp.flags.reset" showname=".... .... .0.. = Reset: Not set" size="1" pos="47" show="0" value="0" unmaskedvalue="10"/>
      <field name="tcp.flags.syn" showname=".... .... ..0. = Syn: Not set" size="1" pos="47" show="0" value="0" unmaskedvalue="10"/>
      <field name="tcp.flags.fin" showname=".... .... ...0 = Fin: Not set" size="1" pos="47" show="0" value="0" unmaskedvalue="10"/>
      <field name="tcp.flags.str" showname="TCP Flags: \xc2\xb7\xc2\xb7\xc2\xb7\xc2\xb7\xc2\xb7\xc2\xb7\xc2\xb7A\xc2\xb7\xc2\xb7\xc2\xb7\xc2\xb7" size="2" pos="46" show="\xc2\xb7\xc2\xb7\xc2\xb7\xc2\xb7\xc2\xb7\xc2\xb7\xc2\xb7A\xc2\xb7\xc2\xb7\xc2\xb7\xc2\xb7" value="8010"/>
    </field>
    <field name="tcp.window_size_value" showname="Window size value: 319" size="2" pos="48" show="319" value="013f"/>
    <field name="tcp.window_size" showname="Calculated window size: 319" size="2" pos="48" show="319" value="013f"/>
    <field name="tcp.window_size_scalefactor" showname="Window size scaling factor: -1 (unknown)" size="2" pos="48" show="-1" value="013f"/>
    <field name="tcp.checksum" showname="Checksum: 0x7a10 [unverified]" size="2" pos="50" show="0x00007a10" value="7a10"/>
    <field name="tcp.checksum.status" showname="Checksum Status: Unverified" size="0" pos="50" show="2"/>
    <field name="tcp.urgent_pointer" showname="Urgent pointer: 0" size="2" pos="52" show="0" value="0000"/>
    <field name="tcp.options" showname="Options: (12 bytes), No-Operation (NOP), No-Operation (NOP), Timestamps" size="12" pos="54" show="01:01:08:0a:4e:a9:ac:4d:8b:c9:4b:15" value="0101080a4ea9ac4d8bc94b15">
      <field name="tcp.options.nop" showname="TCP Option - No-Operation (NOP)" size="1" pos="54" show="01" value="01">
        <field name="tcp.option_kind" showname="Kind: No-Operation (1)" size="1" pos="54" show="1" value="01"/>
      </field>
      <field name="tcp.options.nop" showname="TCP Option - No-Operation (NOP)" size="1" pos="55" show="01" value="01">
        <field name="tcp.option_kind" showname="Kind: No-Operation (1)" size="1" pos="55" show="1" value="01"/>
      </field>
      <field name="tcp.options.timestamp" showname="TCP Option - Timestamps: TSval 1319742541, TSecr 2345224981" size="10" pos="56" show="08:0a:4e:a9:ac:4d:8b:c9:4b:15" value="080a4ea9ac4d8bc94b15">
        <field name="tcp.option_kind" showname="Kind: Time Stamp Option (8)" size="1" pos="56" show="8" value="08"/>
        <field name="tcp.option_len" showname="Length: 10" size="1" pos="57" show="10" value="0a"/>
        <field name="tcp.options.timestamp.tsval" showname="Timestamp value: 1319742541" size="4" pos="58" show="1319742541" value="4ea9ac4d"/>
        <field name="tcp.options.timestamp.tsecr" showname="Timestamp echo reply: 2345224981" size="4" pos="62" show="2345224981" value="8bc94b15"/>
      </field>
    </field>
    <field name="tcp.analysis" showname="SEQ/ACK analysis" size="0" pos="34" show="" value="">
      <field name="tcp.analysis.acks_frame" showname="This is an ACK to the segment in frame: 9" size="0" pos="34" show="9"/>
      <field name="tcp.analysis.ack_rtt" showname="The RTT to ACK the segment was: 0.000031000 seconds" size="0" pos="34" show="0.000031000"/>
    </field>
    <field name="" show="Timestamps" size="0" pos="34">
      <field name="tcp.time_relative" showname="Time since first frame in this TCP stream: 0.000031000 seconds" size="0" pos="34" show="0.000031000"/>
      <field name="tcp.time_delta" showname="Time since previous frame in this TCP stream: 0.000031000 seconds" size="0" pos="34" show="0.000031000"/>
    </field>
  </proto>
</packet>


<packet>
  <proto name="geninfo" pos="0" showname="General information" size="386">
    <field name="num" pos="0" show="11" showname="Number" value="b" size="386"/>
    <field name="len" pos="0" show="386" showname="Frame Length" value="182" size="386"/>
    <field name="caplen" pos="0" show="386" showname="Captured Length" value="182" size="386"/>
    <field name="timestamp" pos="0" show="Feb 22, 2019 22:23:02.242402000 EST" showname="Captured Time" value="1550892182.242402000" size="386"/>
  </proto>
  <proto name="frame" showname="Frame 11: 386 bytes on wire (3088 bits), 386 bytes captured (3088 bits)" size="386" pos="0">
    <field name="frame.encap_type" showname="Encapsulation type: Ethernet (1)" size="0" pos="0" show="1"/>
    <field name="frame.time" showname="Arrival Time: Feb 22, 2019 22:23:02.242402000 EST" size="0" pos="0" show="Feb 22, 2019 22:23:02.242402000 EST"/>
    <field name="frame.offset_shift" showname="Time shift for this packet: 0.000000000 seconds" size="0" pos="0" show="0.000000000"/>
    <field name="frame.time_epoch" showname="Epoch Time: 1550892182.242402000 seconds" size="0" pos="0" show="1550892182.242402000"/>
    <field name="frame.time_delta" showname="Time delta from previous captured frame: 0.003196000 seconds" size="0" pos="0" show="0.003196000"/>
    <field name="frame.time_delta_displayed" showname="Time delta from previous displayed frame: 0.003196000 seconds" size="0" pos="0" show="0.003196000"/>
    <field name="frame.time_relative" showname="Time since reference or first frame: 0.670219000 seconds" size="0" pos="0" show="0.670219000"/>
    <field name="frame.number" showname="Frame Number: 11" size="0" pos="0" show="11"/>
    <field name="frame.len" showname="Frame Length: 386 bytes (3088 bits)" size="0" pos="0" show="386"/>
    <field name="frame.cap_len" showname="Capture Length: 386 bytes (3088 bits)" size="0" pos="0" show="386"/>
    <field name="frame.marked" showname="Frame is marked: False" size="0" pos="0" show="0"/>
    <field name="frame.ignored" showname="Frame is ignored: False" size="0" pos="0" show="0"/>
    <field name="frame.protocols" showname="Protocols in frame: eth:ethertype:ip:udp:ssdp" size="0" pos="0" show="eth:ethertype:ip:udp:ssdp"/>
  </proto>
  <proto name="eth" showname="Ethernet II, Src: Google_d2:76:12 (30:fd:38:d2:76:12), Dst: Tp-LinkT_19:de:6c (e8:de:27:19:de:6c)" size="14" pos="0">
    <field name="eth.dst" showname="Destination: Tp-LinkT_19:de:6c (e8:de:27:19:de:6c)" size="6" pos="0" show="e8:de:27:19:de:6c" value="e8de2719de6c">
      <field name="eth.dst_resolved" showname="Destination (resolved): Tp-LinkT_19:de:6c" hide="yes" size="6" pos="0" show="Tp-LinkT_19:de:6c" value="e8de2719de6c"/>
      <field name="eth.addr" showname="Address: Tp-LinkT_19:de:6c (e8:de:27:19:de:6c)" size="6" pos="0" show="e8:de:27:19:de:6c" value="e8de2719de6c"/>
      <field name="eth.addr_resolved" showname="Address (resolved): Tp-LinkT_19:de:6c" hide="yes" size="6" pos="0" show="Tp-LinkT_19:de:6c" value="e8de2719de6c"/>
      <field name="eth.lg" showname=".... ..0. .... .... .... .... = LG bit: Globally unique address (factory default)" size="3" pos="0" show="0" value="0" unmaskedvalue="e8de27"/>
      <field name="eth.ig" showname=".... ...0 .... .... .... .... = IG bit: Individual address (unicast)" size="3" pos="0" show="0" value="0" unmaskedvalue="e8de27"/>
    </field>
    <field name="eth.src" showname="Source: Google_d2:76:12 (30:fd:38:d2:76:12)" size="6" pos="6" show="30:fd:38:d2:76:12" value="30fd38d27612">
      <field name="eth.src_resolved" showname="Source (resolved): Google_d2:76:12" hide="yes" size="6" pos="6" show="Google_d2:76:12" value="30fd38d27612"/>
      <field name="eth.addr" showname="Address: Google_d2:76:12 (30:fd:38:d2:76:12)" size="6" pos="6" show="30:fd:38:d2:76:12" value="30fd38d27612"/>
      <field name="eth.addr_resolved" showname="Address (resolved): Google_d2:76:12" hide="yes" size="6" pos="6" show="Google_d2:76:12" value="30fd38d27612"/>
      <field name="eth.lg" showname=".... ..0. .... .... .... .... = LG bit: Globally unique address (factory default)" size="3" pos="6" show="0" value="0" unmaskedvalue="30fd38"/>
      <field name="eth.ig" showname=".... ...0 .... .... .... .... = IG bit: Individual address (unicast)" size="3" pos="6" show="0" value="0" unmaskedvalue="30fd38"/>
    </field>
    <field name="eth.type" showname="Type: IPv4 (0x0800)" size="2" pos="12" show="0x00000800" value="0800"/>
  </proto>
  <proto name="ip" showname="Internet Protocol Version 4, Src: 192.168.86.1, Dst: 192.168.86.246" size="20" pos="14">
    <field name="ip.version" showname="0100 .... = Version: 4" size="1" pos="14" show="4" value="4" unmaskedvalue="45"/>
    <field name="ip.hdr_len" showname=".... 0101 = Header Length: 20 bytes (5)" size="1" pos="14" show="20" value="45"/>
    <field name="ip.dsfield" showname="Differentiated Services Field: 0x00 (DSCP: CS0, ECN: Not-ECT)" size="1" pos="15" show="0x00000000" value="00">
      <field name="ip.dsfield.dscp" showname="0000 00.. = Differentiated Services Codepoint: Default (0)" size="1" pos="15" show="0" value="0" unmaskedvalue="00"/>
      <field name="ip.dsfield.ecn" showname=".... ..00 = Explicit Congestion Notification: Not ECN-Capable Transport (0)" size="1" pos="15" show="0" value="0" unmaskedvalue="00"/>
    </field>
    <field name="ip.len" showname="Total Length: 372" size="2" pos="16" show="372" value="0174"/>
    <field name="ip.id" showname="Identification: 0x716b (29035)" size="2" pos="18" show="0x0000716b" value="716b"/>
    <field name="ip.flags" showname="Flags: 0x4000, Don&#x27;t fragment" size="2" pos="20" show="0x00004000" value="4000">
      <field name="ip.flags.rb" showname="0... .... .... .... = Reserved bit: Not set" size="2" pos="20" show="0" value="0" unmaskedvalue="4000"/>
      <field name="ip.flags.df" showname=".1.. .... .... .... = Don&#x27;t fragment: Set" size="2" pos="20" show="1" value="1" unmaskedvalue="4000"/>
      <field name="ip.flags.mf" showname="..0. .... .... .... = More fragments: Not set" size="2" pos="20" show="0" value="0" unmaskedvalue="4000"/>
      <field name="ip.frag_offset" showname="...0 0000 0000 0000 = Fragment offset: 0" size="2" pos="20" show="0" value="0" unmaskedvalue="4000"/>
    </field>
    <field name="ip.ttl" showname="Time to live: 64" size="1" pos="22" show="64" value="40"/>
    <field name="ip.proto" showname="Protocol: UDP (17)" size="1" pos="23" show="17" value="11"/>
    <field name="ip.checksum" showname="Header checksum: 0x99c5 [correct]" size="2" pos="24" show="0x000099c5" value="99c5"/>
    <field name="ip.checksum.status" showname="Header checksum status: Good" size="0" pos="24" show="1"/>
    <field name="ip.checksum_calculated" showname="Calculated Checksum: 0x99c5" size="2" pos="24" show="0x000099c5" value="99c5"/>
    <field name="ip.src" showname="Source: 192.168.86.1" size="4" pos="26" show="192.168.86.1" value="c0a85601"/>
    <field name="ip.addr" showname="Source or Destination Address: 192.168.86.1" hide="yes" size="4" pos="26" show="192.168.86.1" value="c0a85601"/>
    <field name="ip.src_host" showname="Source Host: 192.168.86.1" hide="yes" size="4" pos="26" show="192.168.86.1" value="c0a85601"/>
    <field name="ip.host" showname="Source or Destination Host: 192.168.86.1" hide="yes" size="4" pos="26" show="192.168.86.1" value="c0a85601"/>
    <field name="ip.dst" showname="Destination: 192.168.86.246" size="4" pos="30" show="192.168.86.246" value="c0a856f6"/>
    <field name="ip.addr" showname="Source or Destination Address: 192.168.86.246" hide="yes" size="4" pos="30" show="192.168.86.246" value="c0a856f6"/>
    <field name="ip.dst_host" showname="Destination Host: 192.168.86.246" hide="yes" size="4" pos="30" show="192.168.86.246" value="c0a856f6"/>
    <field name="ip.host" showname="Source or Destination Host: 192.168.86.246" hide="yes" size="4" pos="30" show="192.168.86.246" value="c0a856f6"/>
  </proto>
  <proto name="udp" showname="User Datagram Protocol, Src Port: 1900, Dst Port: 49525" size="8" pos="34">
    <field name="udp.srcport" showname="Source Port: 1900" size="2" pos="34" show="1900" value="076c"/>
    <field name="udp.dstport" showname="Destination Port: 49525" size="2" pos="36" show="49525" value="c175"/>
    <field name="udp.port" showname="Source or Destination Port: 1900" hide="yes" size="2" pos="34" show="1900" value="076c"/>
    <field name="udp.port" showname="Source or Destination Port: 49525" hide="yes" size="2" pos="36" show="49525" value="c175"/>
    <field name="udp.length" showname="Length: 352" size="2" pos="38" show="352" value="0160"/>
    <field name="udp.checksum" showname="Checksum: 0xc9bf [correct]" size="2" pos="40" show="0x0000c9bf" value="c9bf">
      <field name="udp.checksum_calculated" showname="Calculated Checksum: 0xc9bf" size="2" pos="40" show="0x0000c9bf" value="c9bf"/>
    </field>
    <field name="udp.checksum.status" showname="Checksum Status: Good" size="0" pos="40" show="1"/>
    <field name="udp.stream" showname="Stream index: 2" size="0" pos="42" show="2"/>
  </proto>
  <proto name="ssdp" showname="Simple Service Discovery Protocol" size="344" pos="42">
    <field name="" show="HTTP/1.1 200 OK\r\n" size="17" pos="42" value="485454502f312e3120323030204f4b0d0a">
      <field name="_ws.expert" showname="Expert Info (Chat/Sequence): HTTP/1.1 200 OK\r\n" size="0" pos="42">
        <field name="http.chat" showname="HTTP/1.1 200 OK\r\n" size="0" pos="0" show="" value=""/>
        <field name="_ws.expert.message" showname="Message: HTTP/1.1 200 OK\r\n" hide="yes" size="0" pos="0" show="HTTP/1.1 200 OK\r\n"/>
        <field name="_ws.expert.severity" showname="Severity level: Chat" size="0" pos="0" show="2097152"/>
        <field name="_ws.expert.group" showname="Group: Sequence" size="0" pos="0" show="33554432"/>
      </field>
      <field name="http.response.version" showname="Response Version: HTTP/1.1" size="8" pos="42" show="HTTP/1.1" value="485454502f312e31"/>
      <field name="http.response.code" showname="Status Code: 200" size="3" pos="51" show="200" value="323030"/>
      <field name="http.response.code.desc" showname="Status Code Description: OK" size="3" pos="51" show="OK" value="323030"/>
      <field name="http.response.phrase" showname="Response Phrase: OK" size="2" pos="55" show="OK" value="4f4b"/>
    </field>
    <field name="http.cache_control" showname="CACHE-CONTROL: max-age=120\r\n" size="28" pos="59" show="max-age=120" value="43414348452d434f4e54524f4c3a206d61782d6167653d3132300d0a"/>
    <field name="http.response.line" showname="CACHE-CONTROL: max-age=120\r\n" hide="yes" size="28" pos="59" show="CACHE-CONTROL: max-age=120\xd\xa" value="43414348452d434f4e54524f4c3a206d61782d6167653d3132300d0a"/>
    <field name="http.response.line" showname="ST: upnp:rootdevice\r\n" size="21" pos="87" show="ST: upnp:rootdevice\xd\xa" value="53543a2075706e703a726f6f746465766963650d0a"/>
    <field name="http.response.line" showname="USN: uuid:659b55df-de58-40de-976a-d6a682b8e37c::upnp:rootdevice\r\n" size="65" pos="108" show="USN: uuid:659b55df-de58-40de-976a-d6a682b8e37c::upnp:rootdevice\xd\xa" value="55534e3a20757569643a36353962353564662d646535382d343064652d393736612d6436613638326238653337633a3a75706e703a726f6f746465766963650d0a"/>
    <field name="http.response.line" showname="EXT:\r\n" size="6" pos="173" show="EXT:\xd\xa" value="4558543a0d0a"/>
    <field name="http.server" showname="SERVER: chromiumos/rolling UPnP/1.1 MiniUPnPd/1.9\r\n" size="51" pos="179" show="chromiumos/rolling UPnP/1.1 MiniUPnPd/1.9" value="5345525645523a206368726f6d69756d6f732f726f6c6c696e672055506e502f312e31204d696e6955506e50642f312e390d0a"/>
    <field name="http.response.line" showname="SERVER: chromiumos/rolling UPnP/1.1 MiniUPnPd/1.9\r\n" hide="yes" size="51" pos="179" show="SERVER: chromiumos/rolling UPnP/1.1 MiniUPnPd/1.9\xd\xa" value="5345525645523a206368726f6d69756d6f732f726f6c6c696e672055506e502f312e31204d696e6955506e50642f312e390d0a"/>
    <field name="http.location" showname="LOCATION: http://192.168.86.1:5000/rootDesc.xml\r\n" size="49" pos="230" show="http://192.168.86.1:5000/rootDesc.xml" value="4c4f434154494f4e3a20687474703a2f2f3139322e3136382e38362e313a353030302f726f6f74446573632e786d6c0d0a"/>
    <field name="http.response.line" showname="LOCATION: http://192.168.86.1:5000/rootDesc.xml\r\n" hide="yes" size="49" pos="230" show="LOCATION: http://192.168.86.1:5000/rootDesc.xml\xd\xa" value="4c4f434154494f4e3a20687474703a2f2f3139322e3136382e38362e313a353030302f726f6f74446573632e786d6c0d0a"/>
    <field name="http.response.line" showname="OPT: &quot;http://schemas.upnp.org/upnp/1/0/&quot;; ns=01\r\n" size="49" pos="279" show="OPT: &quot;http://schemas.upnp.org/upnp/1/0/&quot;; ns=01\xd\xa" value="4f50543a2022687474703a2f2f736368656d61732e75706e702e6f72672f75706e702f312f302f223b206e733d30310d0a"/>
    <field name="http.response.line" showname="01-NLS: 1\r\n" size="11" pos="328" show="01-NLS: 1\xd\xa" value="30312d4e4c533a20310d0a"/>
    <field name="http.response.line" showname="BOOTID.UPNP.ORG: 1\r\n" size="20" pos="339" show="BOOTID.UPNP.ORG: 1\xd\xa" value="424f4f5449442e55504e502e4f52473a20310d0a"/>
    <field name="http.response.line" showname="CONFIGID.UPNP.ORG: 1337\r\n" size="25" pos="359" show="CONFIGID.UPNP.ORG: 1337\xd\xa" value="434f4e46494749442e55504e502e4f52473a20313333370d0a"/>
    <field name="" show="\r\n" size="2" pos="384" value="0d0a"/>
    <field name="http.response" showname="Response: True" hide="yes" size="0" pos="42" show="1"/>
    <field name="http.response_number" showname="HTTP response 1/1" size="0" pos="42" show="1"/>
  </proto>
</packet>


<packet>
  <proto name="geninfo" pos="0" showname="General information" size="183">
    <field name="num" pos="0" show="12" showname="Number" value="c" size="183"/>
    <field name="len" pos="0" show="183" showname="Frame Length" value="b7" size="183"/>
    <field name="caplen" pos="0" show="183" showname="Captured Length" value="b7" size="183"/>
    <field name="timestamp" pos="0" show="Feb 22, 2019 22:23:02.606719000 EST" showname="Captured Time" value="1550892182.606719000" size="183"/>
  </proto>
  <proto name="frame" showname="Frame 12: 183 bytes on wire (1464 bits), 183 bytes captured (1464 bits)" size="183" pos="0">
    <field name="frame.encap_type" showname="Encapsulation type: Ethernet (1)" size="0" pos="0" show="1"/>
    <field name="frame.time" showname="Arrival Time: Feb 22, 2019 22:23:02.606719000 EST" size="0" pos="0" show="Feb 22, 2019 22:23:02.606719000 EST"/>
    <field name="frame.offset_shift" showname="Time shift for this packet: 0.000000000 seconds" size="0" pos="0" show="0.000000000"/>
    <field name="frame.time_epoch" showname="Epoch Time: 1550892182.606719000 seconds" size="0" pos="0" show="1550892182.606719000"/>
    <field name="frame.time_delta" showname="Time delta from previous captured frame: 0.364317000 seconds" size="0" pos="0" show="0.364317000"/>
    <field name="frame.time_delta_displayed" showname="Time delta from previous displayed frame: 0.364317000 seconds" size="0" pos="0" show="0.364317000"/>
    <field name="frame.time_relative" showname="Time since reference or first frame: 1.034536000 seconds" size="0" pos="0" show="1.034536000"/>
    <field name="frame.number" showname="Frame Number: 12" size="0" pos="0" show="12"/>
    <field name="frame.len" showname="Frame Length: 183 bytes (1464 bits)" size="0" pos="0" show="183"/>
    <field name="frame.cap_len" showname="Capture Length: 183 bytes (1464 bits)" size="0" pos="0" show="183"/>
    <field name="frame.marked" showname="Frame is marked: False" size="0" pos="0" show="0"/>
    <field name="frame.ignored" showname="Frame is ignored: False" size="0" pos="0" show="0"/>
    <field name="frame.protocols" showname="Protocols in frame: eth:ethertype:ip:tcp" size="0" pos="0" show="eth:ethertype:ip:tcp"/>
  </proto>
  <proto name="eth" showname="Ethernet II, Src: Tp-LinkT_19:de:6c (e8:de:27:19:de:6c), Dst: Google_1f:a9:a3 (38:8b:59:1f:a9:a3)" size="14" pos="0">
    <field name="eth.dst" showname="Destination: Google_1f:a9:a3 (38:8b:59:1f:a9:a3)" size="6" pos="0" show="38:8b:59:1f:a9:a3" value="388b591fa9a3">
      <field name="eth.dst_resolved" showname="Destination (resolved): Google_1f:a9:a3" hide="yes" size="6" pos="0" show="Google_1f:a9:a3" value="388b591fa9a3"/>
      <field name="eth.addr" showname="Address: Google_1f:a9:a3 (38:8b:59:1f:a9:a3)" size="6" pos="0" show="38:8b:59:1f:a9:a3" value="388b591fa9a3"/>
      <field name="eth.addr_resolved" showname="Address (resolved): Google_1f:a9:a3" hide="yes" size="6" pos="0" show="Google_1f:a9:a3" value="388b591fa9a3"/>
      <field name="eth.lg" showname=".... ..0. .... .... .... .... = LG bit: Globally unique address (factory default)" size="3" pos="0" show="0" value="0" unmaskedvalue="388b59"/>
      <field name="eth.ig" showname=".... ...0 .... .... .... .... = IG bit: Individual address (unicast)" size="3" pos="0" show="0" value="0" unmaskedvalue="388b59"/>
    </field>
    <field name="eth.src" showname="Source: Tp-LinkT_19:de:6c (e8:de:27:19:de:6c)" size="6" pos="6" show="e8:de:27:19:de:6c" value="e8de2719de6c">
      <field name="eth.src_resolved" showname="Source (resolved): Tp-LinkT_19:de:6c" hide="yes" size="6" pos="6" show="Tp-LinkT_19:de:6c" value="e8de2719de6c"/>
      <field name="eth.addr" showname="Address: Tp-LinkT_19:de:6c (e8:de:27:19:de:6c)" size="6" pos="6" show="e8:de:27:19:de:6c" value="e8de2719de6c"/>
      <field name="eth.addr_resolved" showname="Address (resolved): Tp-LinkT_19:de:6c" hide="yes" size="6" pos="6" show="Tp-LinkT_19:de:6c" value="e8de2719de6c"/>
      <field name="eth.lg" showname=".... ..0. .... .... .... .... = LG bit: Globally unique address (factory default)" size="3" pos="6" show="0" value="0" unmaskedvalue="e8de27"/>
      <field name="eth.ig" showname=".... ...0 .... .... .... .... = IG bit: Individual address (unicast)" size="3" pos="6" show="0" value="0" unmaskedvalue="e8de27"/>
    </field>
    <field name="eth.type" showname="Type: IPv4 (0x0800)" size="2" pos="12" show="0x00000800" value="0800"/>
  </proto>
  <proto name="ip" showname="Internet Protocol Version 4, Src: 192.168.86.246, Dst: 192.168.86.22" size="20" pos="14">
    <field name="ip.version" showname="0100 .... = Version: 4" size="1" pos="14" show="4" value="4" unmaskedvalue="45"/>
    <field name="ip.hdr_len" showname=".... 0101 = Header Length: 20 bytes (5)" size="1" pos="14" show="20" value="45"/>
    <field name="ip.dsfield" showname="Differentiated Services Field: 0x00 (DSCP: CS0, ECN: Not-ECT)" size="1" pos="15" show="0x00000000" value="00">
      <field name="ip.dsfield.dscp" showname="0000 00.. = Differentiated Services Codepoint: Default (0)" size="1" pos="15" show="0" value="0" unmaskedvalue="00"/>
      <field name="ip.dsfield.ecn" showname=".... ..00 = Explicit Congestion Notification: Not ECN-Capable Transport (0)" size="1" pos="15" show="0" value="0" unmaskedvalue="00"/>
    </field>
    <field name="ip.len" showname="Total Length: 169" size="2" pos="16" show="169" value="00a9"/>
    <field name="ip.id" showname="Identification: 0x241b (9243)" size="2" pos="18" show="0x0000241b" value="241b"/>
    <field name="ip.flags" showname="Flags: 0x4000, Don&#x27;t fragment" size="2" pos="20" show="0x00004000" value="4000">
      <field name="ip.flags.rb" showname="0... .... .... .... = Reserved bit: Not set" size="2" pos="20" show="0" value="0" unmaskedvalue="4000"/>
      <field name="ip.flags.df" showname=".1.. .... .... .... = Don&#x27;t fragment: Set" size="2" pos="20" show="1" value="1" unmaskedvalue="4000"/>
      <field name="ip.flags.mf" showname="..0. .... .... .... = More fragments: Not set" size="2" pos="20" show="0" value="0" unmaskedvalue="4000"/>
      <field name="ip.frag_offset" showname="...0 0000 0000 0000 = Fragment offset: 0" size="2" pos="20" show="0" value="0" unmaskedvalue="4000"/>
    </field>
    <field name="ip.ttl" showname="Time to live: 64" size="1" pos="22" show="64" value="40"/>
    <field name="ip.proto" showname="Protocol: TCP (6)" size="1" pos="23" show="6" value="06"/>
    <field name="ip.checksum" showname="Header checksum: 0xe7d6 [correct]" size="2" pos="24" show="0x0000e7d6" value="e7d6"/>
    <field name="ip.checksum.status" showname="Header checksum status: Good" size="0" pos="24" show="1"/>
    <field name="ip.checksum_calculated" showname="Calculated Checksum: 0xe7d6" size="2" pos="24" show="0x0000e7d6" value="e7d6"/>
    <field name="ip.src" showname="Source: 192.168.86.246" size="4" pos="26" show="192.168.86.246" value="c0a856f6"/>
    <field name="ip.addr" showname="Source or Destination Address: 192.168.86.246" hide="yes" size="4" pos="26" show="192.168.86.246" value="c0a856f6"/>
    <field name="ip.src_host" showname="Source Host: 192.168.86.246" hide="yes" size="4" pos="26" show="192.168.86.246" value="c0a856f6"/>
    <field name="ip.host" showname="Source or Destination Host: 192.168.86.246" hide="yes" size="4" pos="26" show="192.168.86.246" value="c0a856f6"/>
    <field name="ip.dst" showname="Destination: 192.168.86.22" size="4" pos="30" show="192.168.86.22" value="c0a85616"/>
    <field name="ip.addr" showname="Source or Destination Address: 192.168.86.22" hide="yes" size="4" pos="30" show="192.168.86.22" value="c0a85616"/>
    <field name="ip.dst_host" showname="Destination Host: 192.168.86.22" hide="yes" size="4" pos="30" show="192.168.86.22" value="c0a85616"/>
    <field name="ip.host" showname="Source or Destination Host: 192.168.86.22" hide="yes" size="4" pos="30" show="192.168.86.22" value="c0a85616"/>
  </proto>
  <proto name="tcp" showname="Transmission Control Protocol, Src Port: 38108, Dst Port: 8009, Seq: 1, Ack: 1, Len: 117" size="32" pos="34">
    <field name="tcp.srcport" showname="Source Port: 38108" size="2" pos="34" show="38108" value="94dc"/>
    <field name="tcp.dstport" showname="Destination Port: 8009" size="2" pos="36" show="8009" value="1f49"/>
    <field name="tcp.port" showname="Source or Destination Port: 38108" hide="yes" size="2" pos="34" show="38108" value="94dc"/>
    <field name="tcp.port" showname="Source or Destination Port: 8009" hide="yes" size="2" pos="36" show="8009" value="1f49"/>
    <field name="tcp.stream" showname="Stream index: 3" size="0" pos="34" show="3"/>
    <field name="tcp.len" showname="TCP Segment Len: 117" size="1" pos="46" show="117" value="80"/>
    <field name="tcp.seq" showname="Sequence number: 1    (relative sequence number)" size="4" pos="38" show="1" value="da81c898"/>
    <field name="tcp.nxtseq" showname="Next sequence number: 118    (relative sequence number)" size="0" pos="34" show="118"/>
    <field name="tcp.ack" showname="Acknowledgment number: 1    (relative ack number)" size="4" pos="42" show="1" value="8d30da0f"/>
    <field name="tcp.hdr_len" showname="1000 .... = Header Length: 32 bytes (8)" size="1" pos="46" show="32" value="80"/>
    <field name="tcp.flags" showname="Flags: 0x018 (PSH, ACK)" size="2" pos="46" show="0x00000018" value="18" unmaskedvalue="8018">
      <field name="tcp.flags.res" showname="000. .... .... = Reserved: Not set" size="1" pos="46" show="0" value="0" unmaskedvalue="80"/>
      <field name="tcp.flags.ns" showname="...0 .... .... = Nonce: Not set" size="1" pos="46" show="0" value="0" unmaskedvalue="80"/>
      <field name="tcp.flags.cwr" showname=".... 0... .... = Congestion Window Reduced (CWR): Not set" size="1" pos="47" show="0" value="0" unmaskedvalue="18"/>
      <field name="tcp.flags.ecn" showname=".... .0.. .... = ECN-Echo: Not set" size="1" pos="47" show="0" value="0" unmaskedvalue="18"/>
      <field name="tcp.flags.urg" showname=".... ..0. .... = Urgent: Not set" size="1" pos="47" show="0" value="0" unmaskedvalue="18"/>
      <field name="tcp.flags.ack" showname=".... ...1 .... = Acknowledgment: Set" size="1" pos="47" show="1" value="1" unmaskedvalue="18"/>
      <field name="tcp.flags.push" showname=".... .... 1... = Push: Set" size="1" pos="47" show="1" value="1" unmaskedvalue="18"/>
      <field name="tcp.flags.reset" showname=".... .... .0.. = Reset: Not set" size="1" pos="47" show="0" value="0" unmaskedvalue="18"/>
      <field name="tcp.flags.syn" showname=".... .... ..0. = Syn: Not set" size="1" pos="47" show="0" value="0" unmaskedvalue="18"/>
      <field name="tcp.flags.fin" showname=".... .... ...0 = Fin: Not set" size="1" pos="47" show="0" value="0" unmaskedvalue="18"/>
      <field name="tcp.flags.str" showname="TCP Flags: \xc2\xb7\xc2\xb7\xc2\xb7\xc2\xb7\xc2\xb7\xc2\xb7\xc2\xb7AP\xc2\xb7\xc2\xb7\xc2\xb7" size="2" pos="46" show="\xc2\xb7\xc2\xb7\xc2\xb7\xc2\xb7\xc2\xb7\xc2\xb7\xc2\xb7AP\xc2\xb7\xc2\xb7\xc2\xb7" value="8018"/>
    </field>
    <field name="tcp.window_size_value" showname="Window size value: 359" size="2" pos="48" show="359" value="0167"/>
    <field name="tcp.window_size" showname="Calculated window size: 359" size="2" pos="48" show="359" value="0167"/>
    <field name="tcp.window_size_scalefactor" showname="Window size scaling factor: -1 (unknown)" size="2" pos="48" show="-1" value="0167"/>
    <field name="tcp.checksum" showname="Checksum: 0x88b9 [unverified]" size="2" pos="50" show="0x000088b9" value="88b9"/>
    <field name="tcp.checksum.status" showname="Checksum Status: Unverified" size="0" pos="50" show="2"/>
    <field name="tcp.urgent_pointer" showname="Urgent pointer: 0" size="2" pos="52" show="0" value="0000"/>
    <field name="tcp.options" showname="Options: (12 bytes), No-Operation (NOP), No-Operation (NOP), Timestamps" size="12" pos="54" show="01:01:08:0a:55:f7:3c:8a:00:69:65:57" value="0101080a55f73c8a00696557">
      <field name="tcp.options.nop" showname="TCP Option - No-Operation (NOP)" size="1" pos="54" show="01" value="01">
        <field name="tcp.option_kind" showname="Kind: No-Operation (1)" size="1" pos="54" show="1" value="01"/>
      </field>
      <field name="tcp.options.nop" showname="TCP Option - No-Operation (NOP)" size="1" pos="55" show="01" value="01">
        <field name="tcp.option_kind" showname="Kind: No-Operation (1)" size="1" pos="55" show="1" value="01"/>
      </field>
      <field name="tcp.options.timestamp" showname="TCP Option - Timestamps: TSval 1442266250, TSecr 6907223" size="10" pos="56" show="08:0a:55:f7:3c:8a:00:69:65:57" value="080a55f73c8a00696557">
        <field name="tcp.option_kind" showname="Kind: Time Stamp Option (8)" size="1" pos="56" show="8" value="08"/>
        <field name="tcp.option_len" showname="Length: 10" size="1" pos="57" show="10" value="0a"/>
        <field name="tcp.options.timestamp.tsval" showname="Timestamp value: 1442266250" size="4" pos="58" show="1442266250" value="55f73c8a"/>
        <field name="tcp.options.timestamp.tsecr" showname="Timestamp echo reply: 6907223" size="4" pos="62" show="6907223" value="00696557"/>
      </field>
    </field>
    <field name="tcp.analysis" showname="SEQ/ACK analysis" size="0" pos="34" show="" value="">
      <field name="tcp.analysis.bytes_in_flight" showname="Bytes in flight: 117" size="0" pos="34" show="117"/>
      <field name="tcp.analysis.push_bytes_sent" showname="Bytes sent since last PSH flag: 117" size="0" pos="34" show="117"/>
    </field>
    <field name="" show="Timestamps" size="0" pos="34">
      <field name="tcp.time_relative" showname="Time since first frame in this TCP stream: 0.000000000 seconds" size="0" pos="34" show="0.000000000"/>
      <field name="tcp.time_delta" showname="Time since previous frame in this TCP stream: 0.000000000 seconds" size="0" pos="34" show="0.000000000"/>
    </field>
    <field name="tcp.payload" showname="TCP payload (117 bytes)" size="117" pos="66" show="17:03:03:00:70:00:00:00:00:00:00:03:15:56:f6:bc:8d:80:4b:21:58:8b:2a:50:a3:f5:ec:78:14:38:7f:da:fd:34:2e:ff:8e:10:d3:be:0b:a4:3f:9e:2d:45:fd:71:e7:dd:ea:28:c0:c0:27:87:2a:36:45:e6:00:d0:e8:27:6c:04:d3:3d:7a:5f:ff:bb:49:3a:3b:92:33:0b:e3:e7:87:6e:7c:ab:a1:72:fe:19:54:49:db:24:12:58:ea:0d:f6:4e:e1:11:76:21:00:82:4d:66:51:c7:74:9b:34:70:b2:8f:e7:21:85" value="1703030070000000000000031556f6bc8d804b21588b2a50a3f5ec7814387fdafd342eff8e10d3be0ba43f9e2d45fd71e7ddea28c0c027872a3645e600d0e8276c04d33d7a5fffbb493a3b92330be3e7876e7caba172fe195449db241258ea0df64ee111762100824d6651c7749b3470b28fe72185"/>
    <field name="tcp.segment_data" showname="TCP segment data (117 bytes)" size="117" pos="66" show="17:03:03:00:70:00:00:00:00:00:00:03:15:56:f6:bc:8d:80:4b:21:58:8b:2a:50:a3:f5:ec:78:14:38:7f:da:fd:34:2e:ff:8e:10:d3:be:0b:a4:3f:9e:2d:45:fd:71:e7:dd:ea:28:c0:c0:27:87:2a:36:45:e6:00:d0:e8:27:6c:04:d3:3d:7a:5f:ff:bb:49:3a:3b:92:33:0b:e3:e7:87:6e:7c:ab:a1:72:fe:19:54:49:db:24:12:58:ea:0d:f6:4e:e1:11:76:21:00:82:4d:66:51:c7:74:9b:34:70:b2:8f:e7:21:85" value="1703030070000000000000031556f6bc8d804b21588b2a50a3f5ec7814387fdafd342eff8e10d3be0ba43f9e2d45fd71e7ddea28c0c027872a3645e600d0e8276c04d33d7a5fffbb493a3b92330be3e7876e7caba172fe195449db241258ea0df64ee111762100824d6651c7749b3470b28fe72185"/>
  </proto>
</packet>


<packet>
  <proto name="geninfo" pos="0" showname="General information" size="66">
    <field name="num" pos="0" show="13" showname="Number" value="d" size="66"/>
    <field name="len" pos="0" show="66" showname="Frame Length" value="42" size="66"/>
    <field name="caplen" pos="0" show="66" showname="Captured Length" value="42" size="66"/>
    <field name="timestamp" pos="0" show="Feb 22, 2019 22:23:02.623566000 EST" showname="Captured Time" value="1550892182.623566000" size="66"/>
  </proto>
  <proto name="frame" showname="Frame 13: 66 bytes on wire (528 bits), 66 bytes captured (528 bits)" size="66" pos="0">
    <field name="frame.encap_type" showname="Encapsulation type: Ethernet (1)" size="0" pos="0" show="1"/>
    <field name="frame.time" showname="Arrival Time: Feb 22, 2019 22:23:02.623566000 EST" size="0" pos="0" show="Feb 22, 2019 22:23:02.623566000 EST"/>
    <field name="frame.offset_shift" showname="Time shift for this packet: 0.000000000 seconds" size="0" pos="0" show="0.000000000"/>
    <field name="frame.time_epoch" showname="Epoch Time: 1550892182.623566000 seconds" size="0" pos="0" show="1550892182.623566000"/>
    <field name="frame.time_delta" showname="Time delta from previous captured frame: 0.016847000 seconds" size="0" pos="0" show="0.016847000"/>
    <field name="frame.time_delta_displayed" showname="Time delta from previous displayed frame: 0.016847000 seconds" size="0" pos="0" show="0.016847000"/>
    <field name="frame.time_relative" showname="Time since reference or first frame: 1.051383000 seconds" size="0" pos="0" show="1.051383000"/>
    <field name="frame.number" showname="Frame Number: 13" size="0" pos="0" show="13"/>
    <field name="frame.len" showname="Frame Length: 66 bytes (528 bits)" size="0" pos="0" show="66"/>
    <field name="frame.cap_len" showname="Capture Length: 66 bytes (528 bits)" size="0" pos="0" show="66"/>
    <field name="frame.marked" showname="Frame is marked: False" size="0" pos="0" show="0"/>
    <field name="frame.ignored" showname="Frame is ignored: False" size="0" pos="0" show="0"/>
    <field name="frame.protocols" showname="Protocols in frame: eth:ethertype:ip:tcp" size="0" pos="0" show="eth:ethertype:ip:tcp"/>
  </proto>
  <proto name="eth" showname="Ethernet II, Src: Tp-LinkT_19:de:6c (e8:de:27:19:de:6c), Dst: Google_1f:a9:a3 (38:8b:59:1f:a9:a3)" size="14" pos="0">
    <field name="eth.dst" showname="Destination: Google_1f:a9:a3 (38:8b:59:1f:a9:a3)" size="6" pos="0" show="38:8b:59:1f:a9:a3" value="388b591fa9a3">
      <field name="eth.dst_resolved" showname="Destination (resolved): Google_1f:a9:a3" hide="yes" size="6" pos="0" show="Google_1f:a9:a3" value="388b591fa9a3"/>
      <field name="eth.addr" showname="Address: Google_1f:a9:a3 (38:8b:59:1f:a9:a3)" size="6" pos="0" show="38:8b:59:1f:a9:a3" value="388b591fa9a3"/>
      <field name="eth.addr_resolved" showname="Address (resolved): Google_1f:a9:a3" hide="yes" size="6" pos="0" show="Google_1f:a9:a3" value="388b591fa9a3"/>
      <field name="eth.lg" showname=".... ..0. .... .... .... .... = LG bit: Globally unique address (factory default)" size="3" pos="0" show="0" value="0" unmaskedvalue="388b59"/>
      <field name="eth.ig" showname=".... ...0 .... .... .... .... = IG bit: Individual address (unicast)" size="3" pos="0" show="0" value="0" unmaskedvalue="388b59"/>
    </field>
    <field name="eth.src" showname="Source: Tp-LinkT_19:de:6c (e8:de:27:19:de:6c)" size="6" pos="6" show="e8:de:27:19:de:6c" value="e8de2719de6c">
      <field name="eth.src_resolved" showname="Source (resolved): Tp-LinkT_19:de:6c" hide="yes" size="6" pos="6" show="Tp-LinkT_19:de:6c" value="e8de2719de6c"/>
      <field name="eth.addr" showname="Address: Tp-LinkT_19:de:6c (e8:de:27:19:de:6c)" size="6" pos="6" show="e8:de:27:19:de:6c" value="e8de2719de6c"/>
      <field name="eth.addr_resolved" showname="Address (resolved): Tp-LinkT_19:de:6c" hide="yes" size="6" pos="6" show="Tp-LinkT_19:de:6c" value="e8de2719de6c"/>
      <field name="eth.lg" showname=".... ..0. .... .... .... .... = LG bit: Globally unique address (factory default)" size="3" pos="6" show="0" value="0" unmaskedvalue="e8de27"/>
      <field name="eth.ig" showname=".... ...0 .... .... .... .... = IG bit: Individual address (unicast)" size="3" pos="6" show="0" value="0" unmaskedvalue="e8de27"/>
    </field>
    <field name="eth.type" showname="Type: IPv4 (0x0800)" size="2" pos="12" show="0x00000800" value="0800"/>
  </proto>
  <proto name="ip" showname="Internet Protocol Version 4, Src: 192.168.86.246, Dst: 192.168.86.22" size="20" pos="14">
    <field name="ip.version" showname="0100 .... = Version: 4" size="1" pos="14" show="4" value="4" unmaskedvalue="45"/>
    <field name="ip.hdr_len" showname=".... 0101 = Header Length: 20 bytes (5)" size="1" pos="14" show="20" value="45"/>
    <field name="ip.dsfield" showname="Differentiated Services Field: 0x00 (DSCP: CS0, ECN: Not-ECT)" size="1" pos="15" show="0x00000000" value="00">
      <field name="ip.dsfield.dscp" showname="0000 00.. = Differentiated Services Codepoint: Default (0)" size="1" pos="15" show="0" value="0" unmaskedvalue="00"/>
      <field name="ip.dsfield.ecn" showname=".... ..00 = Explicit Congestion Notification: Not ECN-Capable Transport (0)" size="1" pos="15" show="0" value="0" unmaskedvalue="00"/>
    </field>
    <field name="ip.len" showname="Total Length: 52" size="2" pos="16" show="52" value="0034"/>
    <field name="ip.id" showname="Identification: 0x241c (9244)" size="2" pos="18" show="0x0000241c" value="241c"/>
    <field name="ip.flags" showname="Flags: 0x4000, Don&#x27;t fragment" size="2" pos="20" show="0x00004000" value="4000">
      <field name="ip.flags.rb" showname="0... .... .... .... = Reserved bit: Not set" size="2" pos="20" show="0" value="0" unmaskedvalue="4000"/>
      <field name="ip.flags.df" showname=".1.. .... .... .... = Don&#x27;t fragment: Set" size="2" pos="20" show="1" value="1" unmaskedvalue="4000"/>
      <field name="ip.flags.mf" showname="..0. .... .... .... = More fragments: Not set" size="2" pos="20" show="0" value="0" unmaskedvalue="4000"/>
      <field name="ip.frag_offset" showname="...0 0000 0000 0000 = Fragment offset: 0" size="2" pos="20" show="0" value="0" unmaskedvalue="4000"/>
    </field>
    <field name="ip.ttl" showname="Time to live: 64" size="1" pos="22" show="64" value="40"/>
    <field name="ip.proto" showname="Protocol: TCP (6)" size="1" pos="23" show="6" value="06"/>
    <field name="ip.checksum" showname="Header checksum: 0xe84a [correct]" size="2" pos="24" show="0x0000e84a" value="e84a"/>
    <field name="ip.checksum.status" showname="Header checksum status: Good" size="0" pos="24" show="1"/>
    <field name="ip.checksum_calculated" showname="Calculated Checksum: 0xe84a" size="2" pos="24" show="0x0000e84a" value="e84a"/>
    <field name="ip.src" showname="Source: 192.168.86.246" size="4" pos="26" show="192.168.86.246" value="c0a856f6"/>
    <field name="ip.addr" showname="Source or Destination Address: 192.168.86.246" hide="yes" size="4" pos="26" show="192.168.86.246" value="c0a856f6"/>
    <field name="ip.src_host" showname="Source Host: 192.168.86.246" hide="yes" size="4" pos="26" show="192.168.86.246" value="c0a856f6"/>
    <field name="ip.host" showname="Source or Destination Host: 192.168.86.246" hide="yes" size="4" pos="26" show="192.168.86.246" value="c0a856f6"/>
    <field name="ip.dst" showname="Destination: 192.168.86.22" size="4" pos="30" show="192.168.86.22" value="c0a85616"/>
    <field name="ip.addr" showname="Source or Destination Address: 192.168.86.22" hide="yes" size="4" pos="30" show="192.168.86.22" value="c0a85616"/>
    <field name="ip.dst_host" showname="Destination Host: 192.168.86.22" hide="yes" size="4" pos="30" show="192.168.86.22" value="c0a85616"/>
    <field name="ip.host" showname="Source or Destination Host: 192.168.86.22" hide="yes" size="4" pos="30" show="192.168.86.22" value="c0a85616"/>
  </proto>
  <proto name="tcp" showname="Transmission Control Protocol, Src Port: 38108, Dst Port: 8009, Seq: 118, Ack: 118, Len: 0" size="32" pos="34">
    <field name="tcp.srcport" showname="Source Port: 38108" size="2" pos="34" show="38108" value="94dc"/>
    <field name="tcp.dstport" showname="Destination Port: 8009" size="2" pos="36" show="8009" value="1f49"/>
    <field name="tcp.port" showname="Source or Destination Port: 38108" hide="yes" size="2" pos="34" show="38108" value="94dc"/>
    <field name="tcp.port" showname="Source or Destination Port: 8009" hide="yes" size="2" pos="36" show="8009" value="1f49"/>
    <field name="tcp.stream" showname="Stream index: 3" size="0" pos="34" show="3"/>
    <field name="tcp.len" showname="TCP Segment Len: 0" size="1" pos="46" show="0" value="80"/>
    <field name="tcp.seq" showname="Sequence number: 118    (relative sequence number)" size="4" pos="38" show="118" value="da81c90d"/>
    <field name="tcp.nxtseq" showname="Next sequence number: 118    (relative sequence number)" size="0" pos="34" show="118"/>
    <field name="tcp.ack" showname="Acknowledgment number: 118    (relative ack number)" size="4" pos="42" show="118" value="8d30da84"/>
    <field name="tcp.hdr_len" showname="1000 .... = Header Length: 32 bytes (8)" size="1" pos="46" show="32" value="80"/>
    <field name="tcp.flags" showname="Flags: 0x010 (ACK)" size="2" pos="46" show="0x00000010" value="10" unmaskedvalue="8010">
      <field name="tcp.flags.res" showname="000. .... .... = Reserved: Not set" size="1" pos="46" show="0" value="0" unmaskedvalue="80"/>
      <field name="tcp.flags.ns" showname="...0 .... .... = Nonce: Not set" size="1" pos="46" show="0" value="0" unmaskedvalue="80"/>
      <field name="tcp.flags.cwr" showname=".... 0... .... = Congestion Window Reduced (CWR): Not set" size="1" pos="47" show="0" value="0" unmaskedvalue="10"/>
      <field name="tcp.flags.ecn" showname=".... .0.. .... = ECN-Echo: Not set" size="1" pos="47" show="0" value="0" unmaskedvalue="10"/>
      <field name="tcp.flags.urg" showname=".... ..0. .... = Urgent: Not set" size="1" pos="47" show="0" value="0" unmaskedvalue="10"/>
      <field name="tcp.flags.ack" showname=".... ...1 .... = Acknowledgment: Set" size="1" pos="47" show="1" value="1" unmaskedvalue="10"/>
      <field name="tcp.flags.push" showname=".... .... 0... = Push: Not set" size="1" pos="47" show="0" value="0" unmaskedvalue="10"/>
      <field name="tcp.flags.reset" showname=".... .... .0.. = Reset: Not set" size="1" pos="47" show="0" value="0" unmaskedvalue="10"/>
      <field name="tcp.flags.syn" showname=".... .... ..0. = Syn: Not set" size="1" pos="47" show="0" value="0" unmaskedvalue="10"/>
      <field name="tcp.flags.fin" showname=".... .... ...0 = Fin: Not set" size="1" pos="47" show="0" value="0" unmaskedvalue="10"/>
      <field name="tcp.flags.str" showname="TCP Flags: \xc2\xb7\xc2\xb7\xc2\xb7\xc2\xb7\xc2\xb7\xc2\xb7\xc2\xb7A\xc2\xb7\xc2\xb7\xc2\xb7\xc2\xb7" size="2" pos="46" show="\xc2\xb7\xc2\xb7\xc2\xb7\xc2\xb7\xc2\xb7\xc2\xb7\xc2\xb7A\xc2\xb7\xc2\xb7\xc2\xb7\xc2\xb7" value="8010"/>
    </field>
    <field name="tcp.window_size_value" showname="Window size value: 359" size="2" pos="48" show="359" value="0167"/>
    <field name="tcp.window_size" showname="Calculated window size: 359" size="2" pos="48" show="359" value="0167"/>
    <field name="tcp.window_size_scalefactor" showname="Window size scaling factor: -1 (unknown)" size="2" pos="48" show="-1" value="0167"/>
    <field name="tcp.checksum" showname="Checksum: 0x8d46 [unverified]" size="2" pos="50" show="0x00008d46" value="8d46"/>
    <field name="tcp.checksum.status" showname="Checksum Status: Unverified" size="0" pos="50" show="2"/>
    <field name="tcp.urgent_pointer" showname="Urgent pointer: 0" size="2" pos="52" show="0" value="0000"/>
    <field name="tcp.options" showname="Options: (12 bytes), No-Operation (NOP), No-Operation (NOP), Timestamps" size="12" pos="54" show="01:01:08:0a:55:f7:3c:9b:00:69:67:4c" value="0101080a55f73c9b0069674c">
      <field name="tcp.options.nop" showname="TCP Option - No-Operation (NOP)" size="1" pos="54" show="01" value="01">
        <field name="tcp.option_kind" showname="Kind: No-Operation (1)" size="1" pos="54" show="1" value="01"/>
      </field>
      <field name="tcp.options.nop" showname="TCP Option - No-Operation (NOP)" size="1" pos="55" show="01" value="01">
        <field name="tcp.option_kind" showname="Kind: No-Operation (1)" size="1" pos="55" show="1" value="01"/>
      </field>
      <field name="tcp.options.timestamp" showname="TCP Option - Timestamps: TSval 1442266267, TSecr 6907724" size="10" pos="56" show="08:0a:55:f7:3c:9b:00:69:67:4c" value="080a55f73c9b0069674c">
        <field name="tcp.option_kind" showname="Kind: Time Stamp Option (8)" size="1" pos="56" show="8" value="08"/>
        <field name="tcp.option_len" showname="Length: 10" size="1" pos="57" show="10" value="0a"/>
        <field name="tcp.options.timestamp.tsval" showname="Timestamp value: 1442266267" size="4" pos="58" show="1442266267" value="55f73c9b"/>
        <field name="tcp.options.timestamp.tsecr" showname="Timestamp echo reply: 6907724" size="4" pos="62" show="6907724" value="0069674c"/>
      </field>
    </field>
    <field name="" show="Timestamps" size="0" pos="34">
      <field name="tcp.time_relative" showname="Time since first frame in this TCP stream: 0.016847000 seconds" size="0" pos="34" show="0.016847000"/>
      <field name="tcp.time_delta" showname="Time since previous frame in this TCP stream: 0.016847000 seconds" size="0" pos="34" show="0.016847000"/>
    </field>
  </proto>
</packet>


<packet>
  <proto name="geninfo" pos="0" showname="General information" size="42">
    <field name="num" pos="0" show="14" showname="Number" value="e" size="42"/>
    <field name="len" pos="0" show="42" showname="Frame Length" value="2a" size="42"/>
    <field name="caplen" pos="0" show="42" showname="Captured Length" value="2a" size="42"/>
    <field name="timestamp" pos="0" show="Feb 22, 2019 22:23:03.248498000 EST" showname="Captured Time" value="1550892183.248498000" size="42"/>
  </proto>
  <proto name="frame" showname="Frame 14: 42 bytes on wire (336 bits), 42 bytes captured (336 bits)" size="42" pos="0">
    <field name="frame.encap_type" showname="Encapsulation type: Ethernet (1)" size="0" pos="0" show="1"/>
    <field name="frame.time" showname="Arrival Time: Feb 22, 2019 22:23:03.248498000 EST" size="0" pos="0" show="Feb 22, 2019 22:23:03.248498000 EST"/>
    <field name="frame.offset_shift" showname="Time shift for this packet: 0.000000000 seconds" size="0" pos="0" show="0.000000000"/>
    <field name="frame.time_epoch" showname="Epoch Time: 1550892183.248498000 seconds" size="0" pos="0" show="1550892183.248498000"/>
    <field name="frame.time_delta" showname="Time delta from previous captured frame: 0.624932000 seconds" size="0" pos="0" show="0.624932000"/>
    <field name="frame.time_delta_displayed" showname="Time delta from previous displayed frame: 0.624932000 seconds" size="0" pos="0" show="0.624932000"/>
    <field name="frame.time_relative" showname="Time since reference or first frame: 1.676315000 seconds" size="0" pos="0" show="1.676315000"/>
    <field name="frame.number" showname="Frame Number: 14" size="0" pos="0" show="14"/>
    <field name="frame.len" showname="Frame Length: 42 bytes (336 bits)" size="0" pos="0" show="42"/>
    <field name="frame.cap_len" showname="Capture Length: 42 bytes (336 bits)" size="0" pos="0" show="42"/>
    <field name="frame.marked" showname="Frame is marked: False" size="0" pos="0" show="0"/>
    <field name="frame.ignored" showname="Frame is ignored: False" size="0" pos="0" show="0"/>
    <field name="frame.protocols" showname="Protocols in frame: eth:ethertype:arp" size="0" pos="0" show="eth:ethertype:arp"/>
  </proto>
  <proto name="eth" showname="Ethernet II, Src: Google_d2:76:12 (30:fd:38:d2:76:12), Dst: Tp-LinkT_19:de:6c (e8:de:27:19:de:6c)" size="14" pos="0">
    <field name="eth.dst" showname="Destination: Tp-LinkT_19:de:6c (e8:de:27:19:de:6c)" size="6" pos="0" show="e8:de:27:19:de:6c" value="e8de2719de6c">
      <field name="eth.dst_resolved" showname="Destination (resolved): Tp-LinkT_19:de:6c" hide="yes" size="6" pos="0" show="Tp-LinkT_19:de:6c" value="e8de2719de6c"/>
      <field name="eth.addr" showname="Address: Tp-LinkT_19:de:6c (e8:de:27:19:de:6c)" size="6" pos="0" show="e8:de:27:19:de:6c" value="e8de2719de6c"/>
      <field name="eth.addr_resolved" showname="Address (resolved): Tp-LinkT_19:de:6c" hide="yes" size="6" pos="0" show="Tp-LinkT_19:de:6c" value="e8de2719de6c"/>
      <field name="eth.lg" showname=".... ..0. .... .... .... .... = LG bit: Globally unique address (factory default)" size="3" pos="0" show="0" value="0" unmaskedvalue="e8de27"/>
      <field name="eth.ig" showname=".... ...0 .... .... .... .... = IG bit: Individual address (unicast)" size="3" pos="0" show="0" value="0" unmaskedvalue="e8de27"/>
    </field>
    <field name="eth.src" showname="Source: Google_d2:76:12 (30:fd:38:d2:76:12)" size="6" pos="6" show="30:fd:38:d2:76:12" value="30fd38d27612">
      <field name="eth.src_resolved" showname="Source (resolved): Google_d2:76:12" hide="yes" size="6" pos="6" show="Google_d2:76:12" value="30fd38d27612"/>
      <field name="eth.addr" showname="Address: Google_d2:76:12 (30:fd:38:d2:76:12)" size="6" pos="6" show="30:fd:38:d2:76:12" value="30fd38d27612"/>
      <field name="eth.addr_resolved" showname="Address (resolved): Google_d2:76:12" hide="yes" size="6" pos="6" show="Google_d2:76:12" value="30fd38d27612"/>
      <field name="eth.lg" showname=".... ..0. .... .... .... .... = LG bit: Globally unique address (factory default)" size="3" pos="6" show="0" value="0" unmaskedvalue="30fd38"/>
      <field name="eth.ig" showname=".... ...0 .... .... .... .... = IG bit: Individual address (unicast)" size="3" pos="6" show="0" value="0" unmaskedvalue="30fd38"/>
    </field>
    <field name="eth.type" showname="Type: ARP (0x0806)" size="2" pos="12" show="0x00000806" value="0806"/>
  </proto>
  <proto name="arp" showname="Address Resolution Protocol (request)" size="28" pos="14">
    <field name="arp.hw.type" showname="Hardware type: Ethernet (1)" size="2" pos="14" show="1" value="0001"/>
    <field name="arp.proto.type" showname="Protocol type: IPv4 (0x0800)" size="2" pos="16" show="0x00000800" value="0800"/>
    <field name="arp.hw.size" showname="Hardware size: 6" size="1" pos="18" show="6" value="06"/>
    <field name="arp.proto.size" showname="Protocol size: 4" size="1" pos="19" show="4" value="04"/>
    <field name="arp.opcode" showname="Opcode: request (1)" size="2" pos="20" show="1" value="0001"/>
    <field name="arp.src.hw_mac" showname="Sender MAC address: Google_d2:76:12 (30:fd:38:d2:76:12)" size="6" pos="22" show="30:fd:38:d2:76:12" value="30fd38d27612"/>
    <field name="arp.src.proto_ipv4" showname="Sender IP address: 192.168.86.1" size="4" pos="28" show="192.168.86.1" value="c0a85601"/>
    <field name="arp.dst.hw_mac" showname="Target MAC address: 00:00:00_00:00:00 (00:00:00:00:00:00)" size="6" pos="32" show="00:00:00:00:00:00" value="000000000000"/>
    <field name="arp.dst.proto_ipv4" showname="Target IP address: 192.168.86.246" size="4" pos="38" show="192.168.86.246" value="c0a856f6"/>
  </proto>
</packet>


<packet>
  <proto name="geninfo" pos="0" showname="General information" size="42">
    <field name="num" pos="0" show="15" showname="Number" value="f" size="42"/>
    <field name="len" pos="0" show="42" showname="Frame Length" value="2a" size="42"/>
    <field name="caplen" pos="0" show="42" showname="Captured Length" value="2a" size="42"/>
    <field name="timestamp" pos="0" show="Feb 22, 2019 22:23:03.248508000 EST" showname="Captured Time" value="1550892183.248508000" size="42"/>
  </proto>
  <proto name="frame" showname="Frame 15: 42 bytes on wire (336 bits), 42 bytes captured (336 bits)" size="42" pos="0">
    <field name="frame.encap_type" showname="Encapsulation type: Ethernet (1)" size="0" pos="0" show="1"/>
    <field name="frame.time" showname="Arrival Time: Feb 22, 2019 22:23:03.248508000 EST" size="0" pos="0" show="Feb 22, 2019 22:23:03.248508000 EST"/>
    <field name="frame.offset_shift" showname="Time shift for this packet: 0.000000000 seconds" size="0" pos="0" show="0.000000000"/>
    <field name="frame.time_epoch" showname="Epoch Time: 1550892183.248508000 seconds" size="0" pos="0" show="1550892183.248508000"/>
    <field name="frame.time_delta" showname="Time delta from previous captured frame: 0.000010000 seconds" size="0" pos="0" show="0.000010000"/>
    <field name="frame.time_delta_displayed" showname="Time delta from previous displayed frame: 0.000010000 seconds" size="0" pos="0" show="0.000010000"/>
    <field name="frame.time_relative" showname="Time since reference or first frame: 1.676325000 seconds" size="0" pos="0" show="1.676325000"/>
    <field name="frame.number" showname="Frame Number: 15" size="0" pos="0" show="15"/>
    <field name="frame.len" showname="Frame Length: 42 bytes (336 bits)" size="0" pos="0" show="42"/>
    <field name="frame.cap_len" showname="Capture Length: 42 bytes (336 bits)" size="0" pos="0" show="42"/>
    <field name="frame.marked" showname="Frame is marked: False" size="0" pos="0" show="0"/>
    <field name="frame.ignored" showname="Frame is ignored: False" size="0" pos="0" show="0"/>
    <field name="frame.protocols" showname="Protocols in frame: eth:ethertype:arp" size="0" pos="0" show="eth:ethertype:arp"/>
  </proto>
  <proto name="eth" showname="Ethernet II, Src: Tp-LinkT_19:de:6c (e8:de:27:19:de:6c), Dst: Google_d2:76:12 (30:fd:38:d2:76:12)" size="14" pos="0">
    <field name="eth.dst" showname="Destination: Google_d2:76:12 (30:fd:38:d2:76:12)" size="6" pos="0" show="30:fd:38:d2:76:12" value="30fd38d27612">
      <field name="eth.dst_resolved" showname="Destination (resolved): Google_d2:76:12" hide="yes" size="6" pos="0" show="Google_d2:76:12" value="30fd38d27612"/>
      <field name="eth.addr" showname="Address: Google_d2:76:12 (30:fd:38:d2:76:12)" size="6" pos="0" show="30:fd:38:d2:76:12" value="30fd38d27612"/>
      <field name="eth.addr_resolved" showname="Address (resolved): Google_d2:76:12" hide="yes" size="6" pos="0" show="Google_d2:76:12" value="30fd38d27612"/>
      <field name="eth.lg" showname=".... ..0. .... .... .... .... = LG bit: Globally unique address (factory default)" size="3" pos="0" show="0" value="0" unmaskedvalue="30fd38"/>
      <field name="eth.ig" showname=".... ...0 .... .... .... .... = IG bit: Individual address (unicast)" size="3" pos="0" show="0" value="0" unmaskedvalue="30fd38"/>
    </field>
    <field name="eth.src" showname="Source: Tp-LinkT_19:de:6c (e8:de:27:19:de:6c)" size="6" pos="6" show="e8:de:27:19:de:6c" value="e8de2719de6c">
      <field name="eth.src_resolved" showname="Source (resolved): Tp-LinkT_19:de:6c" hide="yes" size="6" pos="6" show="Tp-LinkT_19:de:6c" value="e8de2719de6c"/>
      <field name="eth.addr" showname="Address: Tp-LinkT_19:de:6c (e8:de:27:19:de:6c)" size="6" pos="6" show="e8:de:27:19:de:6c" value="e8de2719de6c"/>
      <field name="eth.addr_resolved" showname="Address (resolved): Tp-LinkT_19:de:6c" hide="yes" size="6" pos="6" show="Tp-LinkT_19:de:6c" value="e8de2719de6c"/>
      <field name="eth.lg" showname=".... ..0. .... .... .... .... = LG bit: Globally unique address (factory default)" size="3" pos="6" show="0" value="0" unmaskedvalue="e8de27"/>
      <field name="eth.ig" showname=".... ...0 .... .... .... .... = IG bit: Individual address (unicast)" size="3" pos="6" show="0" value="0" unmaskedvalue="e8de27"/>
    </field>
    <field name="eth.type" showname="Type: ARP (0x0806)" size="2" pos="12" show="0x00000806" value="0806"/>
  </proto>
  <proto name="arp" showname="Address Resolution Protocol (reply)" size="28" pos="14">
    <field name="arp.hw.type" showname="Hardware type: Ethernet (1)" size="2" pos="14" show="1" value="0001"/>
    <field name="arp.proto.type" showname="Protocol type: IPv4 (0x0800)" size="2" pos="16" show="0x00000800" value="0800"/>
    <field name="arp.hw.size" showname="Hardware size: 6" size="1" pos="18" show="6" value="06"/>
    <field name="arp.proto.size" showname="Protocol size: 4" size="1" pos="19" show="4" value="04"/>
    <field name="arp.opcode" showname="Opcode: reply (2)" size="2" pos="20" show="2" value="0002"/>
    <field name="arp.src.hw_mac" showname="Sender MAC address: Tp-LinkT_19:de:6c (e8:de:27:19:de:6c)" size="6" pos="22" show="e8:de:27:19:de:6c" value="e8de2719de6c"/>
    <field name="arp.src.proto_ipv4" showname="Sender IP address: 192.168.86.246" size="4" pos="28" show="192.168.86.246" value="c0a856f6"/>
    <field name="arp.dst.hw_mac" showname="Target MAC address: Google_d2:76:12 (30:fd:38:d2:76:12)" size="6" pos="32" show="30:fd:38:d2:76:12" value="30fd38d27612"/>
    <field name="arp.dst.proto_ipv4" showname="Target IP address: 192.168.86.1" size="4" pos="38" show="192.168.86.1" value="c0a85601"/>
  </proto>
</packet>


<packet>
  <proto name="geninfo" pos="0" showname="General information" size="126">
    <field name="num" pos="0" show="16" showname="Number" value="10" size="126"/>
    <field name="len" pos="0" show="126" showname="Frame Length" value="7e" size="126"/>
    <field name="caplen" pos="0" show="126" showname="Captured Length" value="7e" size="126"/>
    <field name="timestamp" pos="0" show="Feb 22, 2019 22:23:03.319952000 EST" showname="Captured Time" value="1550892183.319952000" size="126"/>
  </proto>
  <proto name="frame" showname="Frame 16: 126 bytes on wire (1008 bits), 126 bytes captured (1008 bits)" size="126" pos="0">
    <field name="frame.encap_type" showname="Encapsulation type: Ethernet (1)" size="0" pos="0" show="1"/>
    <field name="frame.time" showname="Arrival Time: Feb 22, 2019 22:23:03.319952000 EST" size="0" pos="0" show="Feb 22, 2019 22:23:03.319952000 EST"/>
    <field name="frame.offset_shift" showname="Time shift for this packet: 0.000000000 seconds" size="0" pos="0" show="0.000000000"/>
    <field name="frame.time_epoch" showname="Epoch Time: 1550892183.319952000 seconds" size="0" pos="0" show="1550892183.319952000"/>
    <field name="frame.time_delta" showname="Time delta from previous captured frame: 0.071444000 seconds" size="0" pos="0" show="0.071444000"/>
    <field name="frame.time_delta_displayed" showname="Time delta from previous displayed frame: 0.071444000 seconds" size="0" pos="0" show="0.071444000"/>
    <field name="frame.time_relative" showname="Time since reference or first frame: 1.747769000 seconds" size="0" pos="0" show="1.747769000"/>
    <field name="frame.number" showname="Frame Number: 16" size="0" pos="0" show="16"/>
    <field name="frame.len" showname="Frame Length: 126 bytes (1008 bits)" size="0" pos="0" show="126"/>
    <field name="frame.cap_len" showname="Capture Length: 126 bytes (1008 bits)" size="0" pos="0" show="126"/>
    <field name="frame.marked" showname="Frame is marked: False" size="0" pos="0" show="0"/>
    <field name="frame.ignored" showname="Frame is ignored: False" size="0" pos="0" show="0"/>
    <field name="frame.protocols" showname="Protocols in frame: eth:ethertype:ip:tcp:ssl" size="0" pos="0" show="eth:ethertype:ip:tcp:ssl"/>
  </proto>
  <proto name="eth" showname="Ethernet II, Src: Tp-LinkT_19:de:6c (e8:de:27:19:de:6c), Dst: Google_d2:76:12 (30:fd:38:d2:76:12)" size="14" pos="0">
    <field name="eth.dst" showname="Destination: Google_d2:76:12 (30:fd:38:d2:76:12)" size="6" pos="0" show="30:fd:38:d2:76:12" value="30fd38d27612">
      <field name="eth.dst_resolved" showname="Destination (resolved): Google_d2:76:12" hide="yes" size="6" pos="0" show="Google_d2:76:12" value="30fd38d27612"/>
      <field name="eth.addr" showname="Address: Google_d2:76:12 (30:fd:38:d2:76:12)" size="6" pos="0" show="30:fd:38:d2:76:12" value="30fd38d27612"/>
      <field name="eth.addr_resolved" showname="Address (resolved): Google_d2:76:12" hide="yes" size="6" pos="0" show="Google_d2:76:12" value="30fd38d27612"/>
      <field name="eth.lg" showname=".... ..0. .... .... .... .... = LG bit: Globally unique address (factory default)" size="3" pos="0" show="0" value="0" unmaskedvalue="30fd38"/>
      <field name="eth.ig" showname=".... ...0 .... .... .... .... = IG bit: Individual address (unicast)" size="3" pos="0" show="0" value="0" unmaskedvalue="30fd38"/>
    </field>
    <field name="eth.src" showname="Source: Tp-LinkT_19:de:6c (e8:de:27:19:de:6c)" size="6" pos="6" show="e8:de:27:19:de:6c" value="e8de2719de6c">
      <field name="eth.src_resolved" showname="Source (resolved): Tp-LinkT_19:de:6c" hide="yes" size="6" pos="6" show="Tp-LinkT_19:de:6c" value="e8de2719de6c"/>
      <field name="eth.addr" showname="Address: Tp-LinkT_19:de:6c (e8:de:27:19:de:6c)" size="6" pos="6" show="e8:de:27:19:de:6c" value="e8de2719de6c"/>
      <field name="eth.addr_resolved" showname="Address (resolved): Tp-LinkT_19:de:6c" hide="yes" size="6" pos="6" show="Tp-LinkT_19:de:6c" value="e8de2719de6c"/>
      <field name="eth.lg" showname=".... ..0. .... .... .... .... = LG bit: Globally unique address (factory default)" size="3" pos="6" show="0" value="0" unmaskedvalue="e8de27"/>
      <field name="eth.ig" showname=".... ...0 .... .... .... .... = IG bit: Individual address (unicast)" size="3" pos="6" show="0" value="0" unmaskedvalue="e8de27"/>
    </field>
    <field name="eth.type" showname="Type: IPv4 (0x0800)" size="2" pos="12" show="0x00000800" value="0800"/>
  </proto>
  <proto name="ip" showname="Internet Protocol Version 4, Src: 192.168.86.246, Dst: 35.174.87.41" size="20" pos="14">
    <field name="ip.version" showname="0100 .... = Version: 4" size="1" pos="14" show="4" value="4" unmaskedvalue="45"/>
    <field name="ip.hdr_len" showname=".... 0101 = Header Length: 20 bytes (5)" size="1" pos="14" show="20" value="45"/>
    <field name="ip.dsfield" showname="Differentiated Services Field: 0x00 (DSCP: CS0, ECN: Not-ECT)" size="1" pos="15" show="0x00000000" value="00">
      <field name="ip.dsfield.dscp" showname="0000 00.. = Differentiated Services Codepoint: Default (0)" size="1" pos="15" show="0" value="0" unmaskedvalue="00"/>
      <field name="ip.dsfield.ecn" showname=".... ..00 = Explicit Congestion Notification: Not ECN-Capable Transport (0)" size="1" pos="15" show="0" value="0" unmaskedvalue="00"/>
    </field>
    <field name="ip.len" showname="Total Length: 112" size="2" pos="16" show="112" value="0070"/>
    <field name="ip.id" showname="Identification: 0x92a6 (37542)" size="2" pos="18" show="0x000092a6" value="92a6"/>
    <field name="ip.flags" showname="Flags: 0x4000, Don&#x27;t fragment" size="2" pos="20" show="0x00004000" value="4000">
      <field name="ip.flags.rb" showname="0... .... .... .... = Reserved bit: Not set" size="2" pos="20" show="0" value="0" unmaskedvalue="4000"/>
      <field name="ip.flags.df" showname=".1.. .... .... .... = Don&#x27;t fragment: Set" size="2" pos="20" show="1" value="1" unmaskedvalue="4000"/>
      <field name="ip.flags.mf" showname="..0. .... .... .... = More fragments: Not set" size="2" pos="20" show="0" value="0" unmaskedvalue="4000"/>
      <field name="ip.frag_offset" showname="...0 0000 0000 0000 = Fragment offset: 0" size="2" pos="20" show="0" value="0" unmaskedvalue="4000"/>
    </field>
    <field name="ip.ttl" showname="Time to live: 64" size="1" pos="22" show="64" value="40"/>
    <field name="ip.proto" showname="Protocol: TCP (6)" size="1" pos="23" show="6" value="06"/>
    <field name="ip.checksum" showname="Header checksum: 0x156c [correct]" size="2" pos="24" show="0x0000156c" value="156c"/>
    <field name="ip.checksum.status" showname="Header checksum status: Good" size="0" pos="24" show="1"/>
    <field name="ip.checksum_calculated" showname="Calculated Checksum: 0x156c" size="2" pos="24" show="0x0000156c" value="156c"/>
    <field name="ip.src" showname="Source: 192.168.86.246" size="4" pos="26" show="192.168.86.246" value="c0a856f6"/>
    <field name="ip.addr" showname="Source or Destination Address: 192.168.86.246" hide="yes" size="4" pos="26" show="192.168.86.246" value="c0a856f6"/>
    <field name="ip.src_host" showname="Source Host: 192.168.86.246" hide="yes" size="4" pos="26" show="192.168.86.246" value="c0a856f6"/>
    <field name="ip.host" showname="Source or Destination Host: 192.168.86.246" hide="yes" size="4" pos="26" show="192.168.86.246" value="c0a856f6"/>
    <field name="ip.dst" showname="Destination: 35.174.87.41" size="4" pos="30" show="35.174.87.41" value="23ae5729"/>
    <field name="ip.addr" showname="Source or Destination Address: 35.174.87.41" hide="yes" size="4" pos="30" show="35.174.87.41" value="23ae5729"/>
    <field name="ip.dst_host" showname="Destination Host: 35.174.87.41" hide="yes" size="4" pos="30" show="35.174.87.41" value="23ae5729"/>
    <field name="ip.host" showname="Source or Destination Host: 35.174.87.41" hide="yes" size="4" pos="30" show="35.174.87.41" value="23ae5729"/>
  </proto>
  <proto name="tcp" showname="Transmission Control Protocol, Src Port: 53828, Dst Port: 443, Seq: 1, Ack: 1, Len: 60" size="32" pos="34">
    <field name="tcp.srcport" showname="Source Port: 53828" size="2" pos="34" show="53828" value="d244"/>
    <field name="tcp.dstport" showname="Destination Port: 443" size="2" pos="36" show="443" value="01bb"/>
    <field name="tcp.port" showname="Source or Destination Port: 53828" hide="yes" size="2" pos="34" show="53828" value="d244"/>
    <field name="tcp.port" showname="Source or Destination Port: 443" hide="yes" size="2" pos="36" show="443" value="01bb"/>
    <field name="tcp.stream" showname="Stream index: 4" size="0" pos="34" show="4"/>
    <field name="tcp.len" showname="TCP Segment Len: 60" size="1" pos="46" show="60" value="80"/>
    <field name="tcp.seq" showname="Sequence number: 1    (relative sequence number)" size="4" pos="38" show="1" value="f09f15b2"/>
    <field name="tcp.nxtseq" showname="Next sequence number: 61    (relative sequence number)" size="0" pos="34" show="61"/>
    <field name="tcp.ack" showname="Acknowledgment number: 1    (relative ack number)" size="4" pos="42" show="1" value="612b5b37"/>
    <field name="tcp.hdr_len" showname="1000 .... = Header Length: 32 bytes (8)" size="1" pos="46" show="32" value="80"/>
    <field name="tcp.flags" showname="Flags: 0x018 (PSH, ACK)" size="2" pos="46" show="0x00000018" value="18" unmaskedvalue="8018">
      <field name="tcp.flags.res" showname="000. .... .... = Reserved: Not set" size="1" pos="46" show="0" value="0" unmaskedvalue="80"/>
      <field name="tcp.flags.ns" showname="...0 .... .... = Nonce: Not set" size="1" pos="46" show="0" value="0" unmaskedvalue="80"/>
      <field name="tcp.flags.cwr" showname=".... 0... .... = Congestion Window Reduced (CWR): Not set" size="1" pos="47" show="0" value="0" unmaskedvalue="18"/>
      <field name="tcp.flags.ecn" showname=".... .0.. .... = ECN-Echo: Not set" size="1" pos="47" show="0" value="0" unmaskedvalue="18"/>
      <field name="tcp.flags.urg" showname=".... ..0. .... = Urgent: Not set" size="1" pos="47" show="0" value="0" unmaskedvalue="18"/>
      <field name="tcp.flags.ack" showname=".... ...1 .... = Acknowledgment: Set" size="1" pos="47" show="1" value="1" unmaskedvalue="18"/>
      <field name="tcp.flags.push" showname=".... .... 1... = Push: Set" size="1" pos="47" show="1" value="1" unmaskedvalue="18"/>
      <field name="tcp.flags.reset" showname=".... .... .0.. = Reset: Not set" size="1" pos="47" show="0" value="0" unmaskedvalue="18"/>
      <field name="tcp.flags.syn" showname=".... .... ..0. = Syn: Not set" size="1" pos="47" show="0" value="0" unmaskedvalue="18"/>
      <field name="tcp.flags.fin" showname=".... .... ...0 = Fin: Not set" size="1" pos="47" show="0" value="0" unmaskedvalue="18"/>
      <field name="tcp.flags.str" showname="TCP Flags: \xc2\xb7\xc2\xb7\xc2\xb7\xc2\xb7\xc2\xb7\xc2\xb7\xc2\xb7AP\xc2\xb7\xc2\xb7\xc2\xb7" size="2" pos="46" show="\xc2\xb7\xc2\xb7\xc2\xb7\xc2\xb7\xc2\xb7\xc2\xb7\xc2\xb7AP\xc2\xb7\xc2\xb7\xc2\xb7" value="8018"/>
    </field>
    <field name="tcp.window_size_value" showname="Window size value: 274" size="2" pos="48" show="274" value="0112"/>
    <field name="tcp.window_size" showname="Calculated window size: 274" size="2" pos="48" show="274" value="0112"/>
    <field name="tcp.window_size_scalefactor" showname="Window size scaling factor: -1 (unknown)" size="2" pos="48" show="-1" value="0112"/>
    <field name="tcp.checksum" showname="Checksum: 0xdc9d [unverified]" size="2" pos="50" show="0x0000dc9d" value="dc9d"/>
    <field name="tcp.checksum.status" showname="Checksum Status: Unverified" size="0" pos="50" show="2"/>
    <field name="tcp.urgent_pointer" showname="Urgent pointer: 0" size="2" pos="52" show="0" value="0000"/>
    <field name="tcp.options" showname="Options: (12 bytes), No-Operation (NOP), No-Operation (NOP), Timestamps" size="12" pos="54" show="01:01:08:0a:ba:b7:5d:1b:11:87:12:ad" value="0101080abab75d1b118712ad">
      <field name="tcp.options.nop" showname="TCP Option - No-Operation (NOP)" size="1" pos="54" show="01" value="01">
        <field name="tcp.option_kind" showname="Kind: No-Operation (1)" size="1" pos="54" show="1" value="01"/>
      </field>
      <field name="tcp.options.nop" showname="TCP Option - No-Operation (NOP)" size="1" pos="55" show="01" value="01">
        <field name="tcp.option_kind" showname="Kind: No-Operation (1)" size="1" pos="55" show="1" value="01"/>
      </field>
      <field name="tcp.options.timestamp" showname="TCP Option - Timestamps: TSval 3132579099, TSecr 294064813" size="10" pos="56" show="08:0a:ba:b7:5d:1b:11:87:12:ad" value="080abab75d1b118712ad">
        <field name="tcp.option_kind" showname="Kind: Time Stamp Option (8)" size="1" pos="56" show="8" value="08"/>
        <field name="tcp.option_len" showname="Length: 10" size="1" pos="57" show="10" value="0a"/>
        <field name="tcp.options.timestamp.tsval" showname="Timestamp value: 3132579099" size="4" pos="58" show="3132579099" value="bab75d1b"/>
        <field name="tcp.options.timestamp.tsecr" showname="Timestamp echo reply: 294064813" size="4" pos="62" show="294064813" value="118712ad"/>
      </field>
    </field>
    <field name="tcp.analysis" showname="SEQ/ACK analysis" size="0" pos="34" show="" value="">
      <field name="tcp.analysis.bytes_in_flight" showname="Bytes in flight: 60" size="0" pos="34" show="60"/>
      <field name="tcp.analysis.push_bytes_sent" showname="Bytes sent since last PSH flag: 60" size="0" pos="34" show="60"/>
    </field>
    <field name="" show="Timestamps" size="0" pos="34">
      <field name="tcp.time_relative" showname="Time since first frame in this TCP stream: 0.000000000 seconds" size="0" pos="34" show="0.000000000"/>
      <field name="tcp.time_delta" showname="Time since previous frame in this TCP stream: 0.000000000 seconds" size="0" pos="34" show="0.000000000"/>
    </field>
    <field name="tcp.payload" showname="TCP payload (60 bytes)" size="60" pos="66" show="17:03:03:00:37:00:00:00:00:00:00:00:6b:04:92:2c:7d:6f:27:61:dd:20:7b:47:cc:5c:fe:00:ea:9c:2f:62:0a:18:6e:66:10:92:95:57:e9:d1:2a:bc:fa:a9:d9:6c:14:cc:bd:58:3a:c0:d3:b0:7d:46:9e:e4" value="1703030037000000000000006b04922c7d6f2761dd207b47cc5cfe00ea9c2f620a186e6610929557e9d12abcfaa9d96c14ccbd583ac0d3b07d469ee4"/>
  </proto>
  <proto name="ssl" showname="Secure Sockets Layer" size="60" pos="66">
    <field name="ssl.record" showname="TLSv1.2 Record Layer: Application Data Protocol: http-over-tls" size="60" pos="66" show="" value="">
      <field name="ssl.record.content_type" showname="Content Type: Application Data (23)" size="1" pos="66" show="23" value="17"/>
      <field name="ssl.record.version" showname="Version: TLS 1.2 (0x0303)" size="2" pos="67" show="0x00000303" value="0303"/>
      <field name="ssl.record.length" showname="Length: 55" size="2" pos="69" show="55" value="0037"/>
      <field name="ssl.app_data" showname="Encrypted Application Data: 000000000000006b04922c7d6f2761dd207b47cc5cfe00ea..." size="55" pos="71" show="00:00:00:00:00:00:00:6b:04:92:2c:7d:6f:27:61:dd:20:7b:47:cc:5c:fe:00:ea:9c:2f:62:0a:18:6e:66:10:92:95:57:e9:d1:2a:bc:fa:a9:d9:6c:14:cc:bd:58:3a:c0:d3:b0:7d:46:9e:e4" value="000000000000006b04922c7d6f2761dd207b47cc5cfe00ea9c2f620a186e6610929557e9d12abcfaa9d96c14ccbd583ac0d3b07d469ee4"/>
    </field>
  </proto>
</packet>


<packet>
  <proto name="geninfo" pos="0" showname="General information" size="120">
    <field name="num" pos="0" show="17" showname="Number" value="11" size="120"/>
    <field name="len" pos="0" show="120" showname="Frame Length" value="78" size="120"/>
    <field name="caplen" pos="0" show="120" showname="Captured Length" value="78" size="120"/>
    <field name="timestamp" pos="0" show="Feb 22, 2019 22:23:03.383454000 EST" showname="Captured Time" value="1550892183.383454000" size="120"/>
  </proto>
  <proto name="frame" showname="Frame 17: 120 bytes on wire (960 bits), 120 bytes captured (960 bits)" size="120" pos="0">
    <field name="frame.encap_type" showname="Encapsulation type: Ethernet (1)" size="0" pos="0" show="1"/>
    <field name="frame.time" showname="Arrival Time: Feb 22, 2019 22:23:03.383454000 EST" size="0" pos="0" show="Feb 22, 2019 22:23:03.383454000 EST"/>
    <field name="frame.offset_shift" showname="Time shift for this packet: 0.000000000 seconds" size="0" pos="0" show="0.000000000"/>
    <field name="frame.time_epoch" showname="Epoch Time: 1550892183.383454000 seconds" size="0" pos="0" show="1550892183.383454000"/>
    <field name="frame.time_delta" showname="Time delta from previous captured frame: 0.063502000 seconds" size="0" pos="0" show="0.063502000"/>
    <field name="frame.time_delta_displayed" showname="Time delta from previous displayed frame: 0.063502000 seconds" size="0" pos="0" show="0.063502000"/>
    <field name="frame.time_relative" showname="Time since reference or first frame: 1.811271000 seconds" size="0" pos="0" show="1.811271000"/>
    <field name="frame.number" showname="Frame Number: 17" size="0" pos="0" show="17"/>
    <field name="frame.len" showname="Frame Length: 120 bytes (960 bits)" size="0" pos="0" show="120"/>
    <field name="frame.cap_len" showname="Capture Length: 120 bytes (960 bits)" size="0" pos="0" show="120"/>
    <field name="frame.marked" showname="Frame is marked: False" size="0" pos="0" show="0"/>
    <field name="frame.ignored" showname="Frame is ignored: False" size="0" pos="0" show="0"/>
    <field name="frame.protocols" showname="Protocols in frame: eth:ethertype:ip:tcp:ssl" size="0" pos="0" show="eth:ethertype:ip:tcp:ssl"/>
  </proto>
  <proto name="eth" showname="Ethernet II, Src: Google_d2:76:12 (30:fd:38:d2:76:12), Dst: Tp-LinkT_19:de:6c (e8:de:27:19:de:6c)" size="14" pos="0">
    <field name="eth.dst" showname="Destination: Tp-LinkT_19:de:6c (e8:de:27:19:de:6c)" size="6" pos="0" show="e8:de:27:19:de:6c" value="e8de2719de6c">
      <field name="eth.dst_resolved" showname="Destination (resolved): Tp-LinkT_19:de:6c" hide="yes" size="6" pos="0" show="Tp-LinkT_19:de:6c" value="e8de2719de6c"/>
      <field name="eth.addr" showname="Address: Tp-LinkT_19:de:6c (e8:de:27:19:de:6c)" size="6" pos="0" show="e8:de:27:19:de:6c" value="e8de2719de6c"/>
      <field name="eth.addr_resolved" showname="Address (resolved): Tp-LinkT_19:de:6c" hide="yes" size="6" pos="0" show="Tp-LinkT_19:de:6c" value="e8de2719de6c"/>
      <field name="eth.lg" showname=".... ..0. .... .... .... .... = LG bit: Globally unique address (factory default)" size="3" pos="0" show="0" value="0" unmaskedvalue="e8de27"/>
      <field name="eth.ig" showname=".... ...0 .... .... .... .... = IG bit: Individual address (unicast)" size="3" pos="0" show="0" value="0" unmaskedvalue="e8de27"/>
    </field>
    <field name="eth.src" showname="Source: Google_d2:76:12 (30:fd:38:d2:76:12)" size="6" pos="6" show="30:fd:38:d2:76:12" value="30fd38d27612">
      <field name="eth.src_resolved" showname="Source (resolved): Google_d2:76:12" hide="yes" size="6" pos="6" show="Google_d2:76:12" value="30fd38d27612"/>
      <field name="eth.addr" showname="Address: Google_d2:76:12 (30:fd:38:d2:76:12)" size="6" pos="6" show="30:fd:38:d2:76:12" value="30fd38d27612"/>
      <field name="eth.addr_resolved" showname="Address (resolved): Google_d2:76:12" hide="yes" size="6" pos="6" show="Google_d2:76:12" value="30fd38d27612"/>
      <field name="eth.lg" showname=".... ..0. .... .... .... .... = LG bit: Globally unique address (factory default)" size="3" pos="6" show="0" value="0" unmaskedvalue="30fd38"/>
      <field name="eth.ig" showname=".... ...0 .... .... .... .... = IG bit: Individual address (unicast)" size="3" pos="6" show="0" value="0" unmaskedvalue="30fd38"/>
    </field>
    <field name="eth.type" showname="Type: IPv4 (0x0800)" size="2" pos="12" show="0x00000800" value="0800"/>
  </proto>
  <proto name="ip" showname="Internet Protocol Version 4, Src: 35.174.87.41, Dst: 192.168.86.246" size="20" pos="14">
    <field name="ip.version" showname="0100 .... = Version: 4" size="1" pos="14" show="4" value="4" unmaskedvalue="45"/>
    <field name="ip.hdr_len" showname=".... 0101 = Header Length: 20 bytes (5)" size="1" pos="14" show="20" value="45"/>
    <field name="ip.dsfield" showname="Differentiated Services Field: 0x00 (DSCP: CS0, ECN: Not-ECT)" size="1" pos="15" show="0x00000000" value="00">
      <field name="ip.dsfield.dscp" showname="0000 00.. = Differentiated Services Codepoint: Default (0)" size="1" pos="15" show="0" value="0" unmaskedvalue="00"/>
      <field name="ip.dsfield.ecn" showname=".... ..00 = Explicit Congestion Notification: Not ECN-Capable Transport (0)" size="1" pos="15" show="0" value="0" unmaskedvalue="00"/>
    </field>
    <field name="ip.len" showname="Total Length: 106" size="2" pos="16" show="106" value="006a"/>
    <field name="ip.id" showname="Identification: 0x5556 (21846)" size="2" pos="18" show="0x00005556" value="5556"/>
    <field name="ip.flags" showname="Flags: 0x4000, Don&#x27;t fragment" size="2" pos="20" show="0x00004000" value="4000">
      <field name="ip.flags.rb" showname="0... .... .... .... = Reserved bit: Not set" size="2" pos="20" show="0" value="0" unmaskedvalue="4000"/>
      <field name="ip.flags.df" showname=".1.. .... .... .... = Don&#x27;t fragment: Set" size="2" pos="20" show="1" value="1" unmaskedvalue="4000"/>
      <field name="ip.flags.mf" showname="..0. .... .... .... = More fragments: Not set" size="2" pos="20" show="0" value="0" unmaskedvalue="4000"/>
      <field name="ip.frag_offset" showname="...0 0000 0000 0000 = Fragment offset: 0" size="2" pos="20" show="0" value="0" unmaskedvalue="4000"/>
    </field>
    <field name="ip.ttl" showname="Time to live: 237" size="1" pos="22" show="237" value="ed"/>
    <field name="ip.proto" showname="Protocol: TCP (6)" size="1" pos="23" show="6" value="06"/>
    <field name="ip.checksum" showname="Header checksum: 0xa5c1 [correct]" size="2" pos="24" show="0x0000a5c1" value="a5c1"/>
    <field name="ip.checksum.status" showname="Header checksum status: Good" size="0" pos="24" show="1"/>
    <field name="ip.checksum_calculated" showname="Calculated Checksum: 0xa5c1" size="2" pos="24" show="0x0000a5c1" value="a5c1"/>
    <field name="ip.src" showname="Source: 35.174.87.41" size="4" pos="26" show="35.174.87.41" value="23ae5729"/>
    <field name="ip.addr" showname="Source or Destination Address: 35.174.87.41" hide="yes" size="4" pos="26" show="35.174.87.41" value="23ae5729"/>
    <field name="ip.src_host" showname="Source Host: 35.174.87.41" hide="yes" size="4" pos="26" show="35.174.87.41" value="23ae5729"/>
    <field name="ip.host" showname="Source or Destination Host: 35.174.87.41" hide="yes" size="4" pos="26" show="35.174.87.41" value="23ae5729"/>
    <field name="ip.dst" showname="Destination: 192.168.86.246" size="4" pos="30" show="192.168.86.246" value="c0a856f6"/>
    <field name="ip.addr" showname="Source or Destination Address: 192.168.86.246" hide="yes" size="4" pos="30" show="192.168.86.246" value="c0a856f6"/>
    <field name="ip.dst_host" showname="Destination Host: 192.168.86.246" hide="yes" size="4" pos="30" show="192.168.86.246" value="c0a856f6"/>
    <field name="ip.host" showname="Source or Destination Host: 192.168.86.246" hide="yes" size="4" pos="30" show="192.168.86.246" value="c0a856f6"/>
  </proto>
  <proto name="tcp" showname="Transmission Control Protocol, Src Port: 443, Dst Port: 53828, Seq: 1, Ack: 61, Len: 54" size="32" pos="34">
    <field name="tcp.srcport" showname="Source Port: 443" size="2" pos="34" show="443" value="01bb"/>
    <field name="tcp.dstport" showname="Destination Port: 53828" size="2" pos="36" show="53828" value="d244"/>
    <field name="tcp.port" showname="Source or Destination Port: 443" hide="yes" size="2" pos="34" show="443" value="01bb"/>
    <field name="tcp.port" showname="Source or Destination Port: 53828" hide="yes" size="2" pos="36" show="53828" value="d244"/>
    <field name="tcp.stream" showname="Stream index: 4" size="0" pos="34" show="4"/>
    <field name="tcp.len" showname="TCP Segment Len: 54" size="1" pos="46" show="54" value="80"/>
    <field name="tcp.seq" showname="Sequence number: 1    (relative sequence number)" size="4" pos="38" show="1" value="612b5b37"/>
    <field name="tcp.nxtseq" showname="Next sequence number: 55    (relative sequence number)" size="0" pos="34" show="55"/>
    <field name="tcp.ack" showname="Acknowledgment number: 61    (relative ack number)" size="4" pos="42" show="61" value="f09f15ee"/>
    <field name="tcp.hdr_len" showname="1000 .... = Header Length: 32 bytes (8)" size="1" pos="46" show="32" value="80"/>
    <field name="tcp.flags" showname="Flags: 0x018 (PSH, ACK)" size="2" pos="46" show="0x00000018" value="18" unmaskedvalue="8018">
      <field name="tcp.flags.res" showname="000. .... .... = Reserved: Not set" size="1" pos="46" show="0" value="0" unmaskedvalue="80"/>
      <field name="tcp.flags.ns" showname="...0 .... .... = Nonce: Not set" size="1" pos="46" show="0" value="0" unmaskedvalue="80"/>
      <field name="tcp.flags.cwr" showname=".... 0... .... = Congestion Window Reduced (CWR): Not set" size="1" pos="47" show="0" value="0" unmaskedvalue="18"/>
      <field name="tcp.flags.ecn" showname=".... .0.. .... = ECN-Echo: Not set" size="1" pos="47" show="0" value="0" unmaskedvalue="18"/>
      <field name="tcp.flags.urg" showname=".... ..0. .... = Urgent: Not set" size="1" pos="47" show="0" value="0" unmaskedvalue="18"/>
      <field name="tcp.flags.ack" showname=".... ...1 .... = Acknowledgment: Set" size="1" pos="47" show="1" value="1" unmaskedvalue="18"/>
      <field name="tcp.flags.push" showname=".... .... 1... = Push: Set" size="1" pos="47" show="1" value="1" unmaskedvalue="18"/>
      <field name="tcp.flags.reset" showname=".... .... .0.. = Reset: Not set" size="1" pos="47" show="0" value="0" unmaskedvalue="18"/>
      <field name="tcp.flags.syn" showname=".... .... ..0. = Syn: Not set" size="1" pos="47" show="0" value="0" unmaskedvalue="18"/>
      <field name="tcp.flags.fin" showname=".... .... ...0 = Fin: Not set" size="1" pos="47" show="0" value="0" unmaskedvalue="18"/>
      <field name="tcp.flags.str" showname="TCP Flags: \xc2\xb7\xc2\xb7\xc2\xb7\xc2\xb7\xc2\xb7\xc2\xb7\xc2\xb7AP\xc2\xb7\xc2\xb7\xc2\xb7" size="2" pos="46" show="\xc2\xb7\xc2\xb7\xc2\xb7\xc2\xb7\xc2\xb7\xc2\xb7\xc2\xb7AP\xc2\xb7\xc2\xb7\xc2\xb7" value="8018"/>
    </field>
    <field name="tcp.window_size_value" showname="Window size value: 132" size="2" pos="48" show="132" value="0084"/>
    <field name="tcp.window_size" showname="Calculated window size: 132" size="2" pos="48" show="132" value="0084"/>
    <field name="tcp.window_size_scalefactor" showname="Window size scaling factor: -1 (unknown)" size="2" pos="48" show="-1" value="0084"/>
    <field name="tcp.checksum" showname="Checksum: 0xe559 [unverified]" size="2" pos="50" show="0x0000e559" value="e559"/>
    <field name="tcp.checksum.status" showname="Checksum Status: Unverified" size="0" pos="50" show="2"/>
    <field name="tcp.urgent_pointer" showname="Urgent pointer: 0" size="2" pos="52" show="0" value="0000"/>
    <field name="tcp.options" showname="Options: (12 bytes), No-Operation (NOP), No-Operation (NOP), Timestamps" size="12" pos="54" show="01:01:08:0a:11:87:1c:26:ba:b7:5d:1b" value="0101080a11871c26bab75d1b">
      <field name="tcp.options.nop" showname="TCP Option - No-Operation (NOP)" size="1" pos="54" show="01" value="01">
        <field name="tcp.option_kind" showname="Kind: No-Operation (1)" size="1" pos="54" show="1" value="01"/>
      </field>
      <field name="tcp.options.nop" showname="TCP Option - No-Operation (NOP)" size="1" pos="55" show="01" value="01">
        <field name="tcp.option_kind" showname="Kind: No-Operation (1)" size="1" pos="55" show="1" value="01"/>
      </field>
      <field name="tcp.options.timestamp" showname="TCP Option - Timestamps: TSval 294067238, TSecr 3132579099" size="10" pos="56" show="08:0a:11:87:1c:26:ba:b7:5d:1b" value="080a11871c26bab75d1b">
        <field name="tcp.option_kind" showname="Kind: Time Stamp Option (8)" size="1" pos="56" show="8" value="08"/>
        <field name="tcp.option_len" showname="Length: 10" size="1" pos="57" show="10" value="0a"/>
        <field name="tcp.options.timestamp.tsval" showname="Timestamp value: 294067238" size="4" pos="58" show="294067238" value="11871c26"/>
        <field name="tcp.options.timestamp.tsecr" showname="Timestamp echo reply: 3132579099" size="4" pos="62" show="3132579099" value="bab75d1b"/>
      </field>
    </field>
    <field name="tcp.analysis" showname="SEQ/ACK analysis" size="0" pos="34" show="" value="">
      <field name="tcp.analysis.acks_frame" showname="This is an ACK to the segment in frame: 16" size="0" pos="34" show="16"/>
      <field name="tcp.analysis.ack_rtt" showname="The RTT to ACK the segment was: 0.063502000 seconds" size="0" pos="34" show="0.063502000"/>
      <field name="tcp.analysis.bytes_in_flight" showname="Bytes in flight: 54" size="0" pos="34" show="54"/>
      <field name="tcp.analysis.push_bytes_sent" showname="Bytes sent since last PSH flag: 54" size="0" pos="34" show="54"/>
    </field>
    <field name="" show="Timestamps" size="0" pos="34">
      <field name="tcp.time_relative" showname="Time since first frame in this TCP stream: 0.063502000 seconds" size="0" pos="34" show="0.063502000"/>
      <field name="tcp.time_delta" showname="Time since previous frame in this TCP stream: 0.063502000 seconds" size="0" pos="34" show="0.063502000"/>
    </field>
    <field name="tcp.payload" showname="TCP payload (54 bytes)" size="54" pos="66" show="17:03:03:00:31:00:00:00:00:00:00:00:6b:3d:4b:5b:a4:2a:4f:6c:52:5e:76:bd:9e:ba:90:2b:25:59:0f:b8:5f:e7:73:2c:70:af:c1:0e:26:bc:4d:1d:d0:ac:71:5c:0b:f0:60:78:d8:57" value="1703030031000000000000006b3d4b5ba42a4f6c525e76bd9eba902b25590fb85fe7732c70afc10e26bc4d1dd0ac715c0bf06078d857"/>
  </proto>
  <proto name="ssl" showname="Secure Sockets Layer" size="54" pos="66">
    <field name="ssl.record" showname="TLSv1.2 Record Layer: Application Data Protocol: http-over-tls" size="54" pos="66" show="" value="">
      <field name="ssl.record.content_type" showname="Content Type: Application Data (23)" size="1" pos="66" show="23" value="17"/>
      <field name="ssl.record.version" showname="Version: TLS 1.2 (0x0303)" size="2" pos="67" show="0x00000303" value="0303"/>
      <field name="ssl.record.length" showname="Length: 49" size="2" pos="69" show="49" value="0031"/>
      <field name="ssl.app_data" showname="Encrypted Application Data: 000000000000006b3d4b5ba42a4f6c525e76bd9eba902b25..." size="49" pos="71" show="00:00:00:00:00:00:00:6b:3d:4b:5b:a4:2a:4f:6c:52:5e:76:bd:9e:ba:90:2b:25:59:0f:b8:5f:e7:73:2c:70:af:c1:0e:26:bc:4d:1d:d0:ac:71:5c:0b:f0:60:78:d8:57" value="000000000000006b3d4b5ba42a4f6c525e76bd9eba902b25590fb85fe7732c70afc10e26bc4d1dd0ac715c0bf06078d857"/>
    </field>
  </proto>
</packet>


<packet>
  <proto name="geninfo" pos="0" showname="General information" size="66">
    <field name="num" pos="0" show="18" showname="Number" value="12" size="66"/>
    <field name="len" pos="0" show="66" showname="Frame Length" value="42" size="66"/>
    <field name="caplen" pos="0" show="66" showname="Captured Length" value="42" size="66"/>
    <field name="timestamp" pos="0" show="Feb 22, 2019 22:23:03.383490000 EST" showname="Captured Time" value="1550892183.383490000" size="66"/>
  </proto>
  <proto name="frame" showname="Frame 18: 66 bytes on wire (528 bits), 66 bytes captured (528 bits)" size="66" pos="0">
    <field name="frame.encap_type" showname="Encapsulation type: Ethernet (1)" size="0" pos="0" show="1"/>
    <field name="frame.time" showname="Arrival Time: Feb 22, 2019 22:23:03.383490000 EST" size="0" pos="0" show="Feb 22, 2019 22:23:03.383490000 EST"/>
    <field name="frame.offset_shift" showname="Time shift for this packet: 0.000000000 seconds" size="0" pos="0" show="0.000000000"/>
    <field name="frame.time_epoch" showname="Epoch Time: 1550892183.383490000 seconds" size="0" pos="0" show="1550892183.383490000"/>
    <field name="frame.time_delta" showname="Time delta from previous captured frame: 0.000036000 seconds" size="0" pos="0" show="0.000036000"/>
    <field name="frame.time_delta_displayed" showname="Time delta from previous displayed frame: 0.000036000 seconds" size="0" pos="0" show="0.000036000"/>
    <field name="frame.time_relative" showname="Time since reference or first frame: 1.811307000 seconds" size="0" pos="0" show="1.811307000"/>
    <field name="frame.number" showname="Frame Number: 18" size="0" pos="0" show="18"/>
    <field name="frame.len" showname="Frame Length: 66 bytes (528 bits)" size="0" pos="0" show="66"/>
    <field name="frame.cap_len" showname="Capture Length: 66 bytes (528 bits)" size="0" pos="0" show="66"/>
    <field name="frame.marked" showname="Frame is marked: False" size="0" pos="0" show="0"/>
    <field name="frame.ignored" showname="Frame is ignored: False" size="0" pos="0" show="0"/>
    <field name="frame.protocols" showname="Protocols in frame: eth:ethertype:ip:tcp" size="0" pos="0" show="eth:ethertype:ip:tcp"/>
  </proto>
  <proto name="eth" showname="Ethernet II, Src: Tp-LinkT_19:de:6c (e8:de:27:19:de:6c), Dst: Google_d2:76:12 (30:fd:38:d2:76:12)" size="14" pos="0">
    <field name="eth.dst" showname="Destination: Google_d2:76:12 (30:fd:38:d2:76:12)" size="6" pos="0" show="30:fd:38:d2:76:12" value="30fd38d27612">
      <field name="eth.dst_resolved" showname="Destination (resolved): Google_d2:76:12" hide="yes" size="6" pos="0" show="Google_d2:76:12" value="30fd38d27612"/>
      <field name="eth.addr" showname="Address: Google_d2:76:12 (30:fd:38:d2:76:12)" size="6" pos="0" show="30:fd:38:d2:76:12" value="30fd38d27612"/>
      <field name="eth.addr_resolved" showname="Address (resolved): Google_d2:76:12" hide="yes" size="6" pos="0" show="Google_d2:76:12" value="30fd38d27612"/>
      <field name="eth.lg" showname=".... ..0. .... .... .... .... = LG bit: Globally unique address (factory default)" size="3" pos="0" show="0" value="0" unmaskedvalue="30fd38"/>
      <field name="eth.ig" showname=".... ...0 .... .... .... .... = IG bit: Individual address (unicast)" size="3" pos="0" show="0" value="0" unmaskedvalue="30fd38"/>
    </field>
    <field name="eth.src" showname="Source: Tp-LinkT_19:de:6c (e8:de:27:19:de:6c)" size="6" pos="6" show="e8:de:27:19:de:6c" value="e8de2719de6c">
      <field name="eth.src_resolved" showname="Source (resolved): Tp-LinkT_19:de:6c" hide="yes" size="6" pos="6" show="Tp-LinkT_19:de:6c" value="e8de2719de6c"/>
      <field name="eth.addr" showname="Address: Tp-LinkT_19:de:6c (e8:de:27:19:de:6c)" size="6" pos="6" show="e8:de:27:19:de:6c" value="e8de2719de6c"/>
      <field name="eth.addr_resolved" showname="Address (resolved): Tp-LinkT_19:de:6c" hide="yes" size="6" pos="6" show="Tp-LinkT_19:de:6c" value="e8de2719de6c"/>
      <field name="eth.lg" showname=".... ..0. .... .... .... .... = LG bit: Globally unique address (factory default)" size="3" pos="6" show="0" value="0" unmaskedvalue="e8de27"/>
      <field name="eth.ig" showname=".... ...0 .... .... .... .... = IG bit: Individual address (unicast)" size="3" pos="6" show="0" value="0" unmaskedvalue="e8de27"/>
    </field>
    <field name="eth.type" showname="Type: IPv4 (0x0800)" size="2" pos="12" show="0x00000800" value="0800"/>
  </proto>
  <proto name="ip" showname="Internet Protocol Version 4, Src: 192.168.86.246, Dst: 35.174.87.41" size="20" pos="14">
    <field name="ip.version" showname="0100 .... = Version: 4" size="1" pos="14" show="4" value="4" unmaskedvalue="45"/>
    <field name="ip.hdr_len" showname=".... 0101 = Header Length: 20 bytes (5)" size="1" pos="14" show="20" value="45"/>
    <field name="ip.dsfield" showname="Differentiated Services Field: 0x00 (DSCP: CS0, ECN: Not-ECT)" size="1" pos="15" show="0x00000000" value="00">
      <field name="ip.dsfield.dscp" showname="0000 00.. = Differentiated Services Codepoint: Default (0)" size="1" pos="15" show="0" value="0" unmaskedvalue="00"/>
      <field name="ip.dsfield.ecn" showname=".... ..00 = Explicit Congestion Notification: Not ECN-Capable Transport (0)" size="1" pos="15" show="0" value="0" unmaskedvalue="00"/>
    </field>
    <field name="ip.len" showname="Total Length: 52" size="2" pos="16" show="52" value="0034"/>
    <field name="ip.id" showname="Identification: 0x92a7 (37543)" size="2" pos="18" show="0x000092a7" value="92a7"/>
    <field name="ip.flags" showname="Flags: 0x4000, Don&#x27;t fragment" size="2" pos="20" show="0x00004000" value="4000">
      <field name="ip.flags.rb" showname="0... .... .... .... = Reserved bit: Not set" size="2" pos="20" show="0" value="0" unmaskedvalue="4000"/>
      <field name="ip.flags.df" showname=".1.. .... .... .... = Don&#x27;t fragment: Set" size="2" pos="20" show="1" value="1" unmaskedvalue="4000"/>
      <field name="ip.flags.mf" showname="..0. .... .... .... = More fragments: Not set" size="2" pos="20" show="0" value="0" unmaskedvalue="4000"/>
      <field name="ip.frag_offset" showname="...0 0000 0000 0000 = Fragment offset: 0" size="2" pos="20" show="0" value="0" unmaskedvalue="4000"/>
    </field>
    <field name="ip.ttl" showname="Time to live: 64" size="1" pos="22" show="64" value="40"/>
    <field name="ip.proto" showname="Protocol: TCP (6)" size="1" pos="23" show="6" value="06"/>
    <field name="ip.checksum" showname="Header checksum: 0x15a7 [correct]" size="2" pos="24" show="0x000015a7" value="15a7"/>
    <field name="ip.checksum.status" showname="Header checksum status: Good" size="0" pos="24" show="1"/>
    <field name="ip.checksum_calculated" showname="Calculated Checksum: 0x15a7" size="2" pos="24" show="0x000015a7" value="15a7"/>
    <field name="ip.src" showname="Source: 192.168.86.246" size="4" pos="26" show="192.168.86.246" value="c0a856f6"/>
    <field name="ip.addr" showname="Source or Destination Address: 192.168.86.246" hide="yes" size="4" pos="26" show="192.168.86.246" value="c0a856f6"/>
    <field name="ip.src_host" showname="Source Host: 192.168.86.246" hide="yes" size="4" pos="26" show="192.168.86.246" value="c0a856f6"/>
    <field name="ip.host" showname="Source or Destination Host: 192.168.86.246" hide="yes" size="4" pos="26" show="192.168.86.246" value="c0a856f6"/>
    <field name="ip.dst" showname="Destination: 35.174.87.41" size="4" pos="30" show="35.174.87.41" value="23ae5729"/>
    <field name="ip.addr" showname="Source or Destination Address: 35.174.87.41" hide="yes" size="4" pos="30" show="35.174.87.41" value="23ae5729"/>
    <field name="ip.dst_host" showname="Destination Host: 35.174.87.41" hide="yes" size="4" pos="30" show="35.174.87.41" value="23ae5729"/>
    <field name="ip.host" showname="Source or Destination Host: 35.174.87.41" hide="yes" size="4" pos="30" show="35.174.87.41" value="23ae5729"/>
  </proto>
  <proto name="tcp" showname="Transmission Control Protocol, Src Port: 53828, Dst Port: 443, Seq: 61, Ack: 55, Len: 0" size="32" pos="34">
    <field name="tcp.srcport" showname="Source Port: 53828" size="2" pos="34" show="53828" value="d244"/>
    <field name="tcp.dstport" showname="Destination Port: 443" size="2" pos="36" show="443" value="01bb"/>
    <field name="tcp.port" showname="Source or Destination Port: 53828" hide="yes" size="2" pos="34" show="53828" value="d244"/>
    <field name="tcp.port" showname="Source or Destination Port: 443" hide="yes" size="2" pos="36" show="443" value="01bb"/>
    <field name="tcp.stream" showname="Stream index: 4" size="0" pos="34" show="4"/>
    <field name="tcp.len" showname="TCP Segment Len: 0" size="1" pos="46" show="0" value="80"/>
    <field name="tcp.seq" showname="Sequence number: 61    (relative sequence number)" size="4" pos="38" show="61" value="f09f15ee"/>
    <field name="tcp.nxtseq" showname="Next sequence number: 61    (relative sequence number)" size="0" pos="34" show="61"/>
    <field name="tcp.ack" showname="Acknowledgment number: 55    (relative ack number)" size="4" pos="42" show="55" value="612b5b6d"/>
    <field name="tcp.hdr_len" showname="1000 .... = Header Length: 32 bytes (8)" size="1" pos="46" show="32" value="80"/>
    <field name="tcp.flags" showname="Flags: 0x010 (ACK)" size="2" pos="46" show="0x00000010" value="10" unmaskedvalue="8010">
      <field name="tcp.flags.res" showname="000. .... .... = Reserved: Not set" size="1" pos="46" show="0" value="0" unmaskedvalue="80"/>
      <field name="tcp.flags.ns" showname="...0 .... .... = Nonce: Not set" size="1" pos="46" show="0" value="0" unmaskedvalue="80"/>
      <field name="tcp.flags.cwr" showname=".... 0... .... = Congestion Window Reduced (CWR): Not set" size="1" pos="47" show="0" value="0" unmaskedvalue="10"/>
      <field name="tcp.flags.ecn" showname=".... .0.. .... = ECN-Echo: Not set" size="1" pos="47" show="0" value="0" unmaskedvalue="10"/>
      <field name="tcp.flags.urg" showname=".... ..0. .... = Urgent: Not set" size="1" pos="47" show="0" value="0" unmaskedvalue="10"/>
      <field name="tcp.flags.ack" showname=".... ...1 .... = Acknowledgment: Set" size="1" pos="47" show="1" value="1" unmaskedvalue="10"/>
      <field name="tcp.flags.push" showname=".... .... 0... = Push: Not set" size="1" pos="47" show="0" value="0" unmaskedvalue="10"/>
      <field name="tcp.flags.reset" showname=".... .... .0.. = Reset: Not set" size="1" pos="47" show="0" value="0" unmaskedvalue="10"/>
      <field name="tcp.flags.syn" showname=".... .... ..0. = Syn: Not set" size="1" pos="47" show="0" value="0" unmaskedvalue="10"/>
      <field name="tcp.flags.fin" showname=".... .... ...0 = Fin: Not set" size="1" pos="47" show="0" value="0" unmaskedvalue="10"/>
      <field name="tcp.flags.str" showname="TCP Flags: \xc2\xb7\xc2\xb7\xc2\xb7\xc2\xb7\xc2\xb7\xc2\xb7\xc2\xb7A\xc2\xb7\xc2\xb7\xc2\xb7\xc2\xb7" size="2" pos="46" show="\xc2\xb7\xc2\xb7\xc2\xb7\xc2\xb7\xc2\xb7\xc2\xb7\xc2\xb7A\xc2\xb7\xc2\xb7\xc2\xb7\xc2\xb7" value="8010"/>
    </field>
    <field name="tcp.window_size_value" showname="Window size value: 274" size="2" pos="48" show="274" value="0112"/>
    <field name="tcp.window_size" showname="Calculated window size: 274" size="2" pos="48" show="274" value="0112"/>
    <field name="tcp.window_size_scalefactor" showname="Window size scaling factor: -1 (unknown)" size="2" pos="48" show="-1" value="0112"/>
    <field name="tcp.checksum" showname="Checksum: 0x064f [unverified]" size="2" pos="50" show="0x0000064f" value="064f"/>
    <field name="tcp.checksum.status" showname="Checksum Status: Unverified" size="0" pos="50" show="2"/>
    <field name="tcp.urgent_pointer" showname="Urgent pointer: 0" size="2" pos="52" show="0" value="0000"/>
    <field name="tcp.options" showname="Options: (12 bytes), No-Operation (NOP), No-Operation (NOP), Timestamps" size="12" pos="54" show="01:01:08:0a:ba:b7:5d:5b:11:87:1c:26" value="0101080abab75d5b11871c26">
      <field name="tcp.options.nop" showname="TCP Option - No-Operation (NOP)" size="1" pos="54" show="01" value="01">
        <field name="tcp.option_kind" showname="Kind: No-Operation (1)" size="1" pos="54" show="1" value="01"/>
      </field>
      <field name="tcp.options.nop" showname="TCP Option - No-Operation (NOP)" size="1" pos="55" show="01" value="01">
        <field name="tcp.option_kind" showname="Kind: No-Operation (1)" size="1" pos="55" show="1" value="01"/>
      </field>
      <field name="tcp.options.timestamp" showname="TCP Option - Timestamps: TSval 3132579163, TSecr 294067238" size="10" pos="56" show="08:0a:ba:b7:5d:5b:11:87:1c:26" value="080abab75d5b11871c26">
        <field name="tcp.option_kind" showname="Kind: Time Stamp Option (8)" size="1" pos="56" show="8" value="08"/>
        <field name="tcp.option_len" showname="Length: 10" size="1" pos="57" show="10" value="0a"/>
        <field name="tcp.options.timestamp.tsval" showname="Timestamp value: 3132579163" size="4" pos="58" show="3132579163" value="bab75d5b"/>
        <field name="tcp.options.timestamp.tsecr" showname="Timestamp echo reply: 294067238" size="4" pos="62" show="294067238" value="11871c26"/>
      </field>
    </field>
    <field name="tcp.analysis" showname="SEQ/ACK analysis" size="0" pos="34" show="" value="">
      <field name="tcp.analysis.acks_frame" showname="This is an ACK to the segment in frame: 17" size="0" pos="34" show="17"/>
      <field name="tcp.analysis.ack_rtt" showname="The RTT to ACK the segment was: 0.000036000 seconds" size="0" pos="34" show="0.000036000"/>
    </field>
    <field name="" show="Timestamps" size="0" pos="34">
      <field name="tcp.time_relative" showname="Time since first frame in this TCP stream: 0.063538000 seconds" size="0" pos="34" show="0.063538000"/>
      <field name="tcp.time_delta" showname="Time since previous frame in this TCP stream: 0.000036000 seconds" size="0" pos="34" show="0.000036000"/>
    </field>
  </proto>
</packet>


</pdml>
